   1              	 .syntax unified
   2              	 .cpu cortex-m4
   3              	 .eabi_attribute 27,3
   4              	 .fpu fpv4-sp-d16
   5              	 .eabi_attribute 20,1
   6              	 .eabi_attribute 21,1
   7              	 .eabi_attribute 23,3
   8              	 .eabi_attribute 24,1
   9              	 .eabi_attribute 25,1
  10              	 .eabi_attribute 26,1
  11              	 .eabi_attribute 30,6
  12              	 .eabi_attribute 34,1
  13              	 .eabi_attribute 18,4
  14              	 .thumb
  15              	 .file "iic.c"
  16              	 .text
  17              	.Ltext0:
  18              	 .cfi_sections .debug_frame
  19              	 .section .text.XMC_USIC_CH_SetInputSource,"ax",%progbits
  20              	 .align 2
  21              	 .thumb
  22              	 .thumb_func
  24              	XMC_USIC_CH_SetInputSource:
  25              	.LFB139:
  26              	 .file 1 "C:/Users/lgg/Desktop/hithanbo/dave_ws/lgg_xmc/Libraries/XMCLib/inc/xmc_usic.h"
   1:C:/Users/lgg/Desktop/hithanbo/dave_ws/lgg_xmc/Libraries/XMCLib/inc\xmc_usic.h **** /**
   2:C:/Users/lgg/Desktop/hithanbo/dave_ws/lgg_xmc/Libraries/XMCLib/inc\xmc_usic.h ****  * @file xmc_usic.h
   3:C:/Users/lgg/Desktop/hithanbo/dave_ws/lgg_xmc/Libraries/XMCLib/inc\xmc_usic.h ****  * @date 2017-09-08
   4:C:/Users/lgg/Desktop/hithanbo/dave_ws/lgg_xmc/Libraries/XMCLib/inc\xmc_usic.h ****  *
   5:C:/Users/lgg/Desktop/hithanbo/dave_ws/lgg_xmc/Libraries/XMCLib/inc\xmc_usic.h ****  * @cond
   6:C:/Users/lgg/Desktop/hithanbo/dave_ws/lgg_xmc/Libraries/XMCLib/inc\xmc_usic.h ****  **************************************************************************************************
   7:C:/Users/lgg/Desktop/hithanbo/dave_ws/lgg_xmc/Libraries/XMCLib/inc\xmc_usic.h ****  * XMClib v2.1.18 - XMC Peripheral Driver Library 
   8:C:/Users/lgg/Desktop/hithanbo/dave_ws/lgg_xmc/Libraries/XMCLib/inc\xmc_usic.h ****  *
   9:C:/Users/lgg/Desktop/hithanbo/dave_ws/lgg_xmc/Libraries/XMCLib/inc\xmc_usic.h ****  * Copyright (c) 2015-2018, Infineon Technologies AG
  10:C:/Users/lgg/Desktop/hithanbo/dave_ws/lgg_xmc/Libraries/XMCLib/inc\xmc_usic.h ****  * All rights reserved.                        
  11:C:/Users/lgg/Desktop/hithanbo/dave_ws/lgg_xmc/Libraries/XMCLib/inc\xmc_usic.h ****  *                                             
  12:C:/Users/lgg/Desktop/hithanbo/dave_ws/lgg_xmc/Libraries/XMCLib/inc\xmc_usic.h ****  * Redistribution and use in source and binary forms, with or without modification,are permitted pr
  13:C:/Users/lgg/Desktop/hithanbo/dave_ws/lgg_xmc/Libraries/XMCLib/inc\xmc_usic.h ****  * following conditions are met:   
  14:C:/Users/lgg/Desktop/hithanbo/dave_ws/lgg_xmc/Libraries/XMCLib/inc\xmc_usic.h ****  *                                                                              
  15:C:/Users/lgg/Desktop/hithanbo/dave_ws/lgg_xmc/Libraries/XMCLib/inc\xmc_usic.h ****  * Redistributions of source code must retain the above copyright notice, this list of conditions a
  16:C:/Users/lgg/Desktop/hithanbo/dave_ws/lgg_xmc/Libraries/XMCLib/inc\xmc_usic.h ****  * disclaimer.                        
  17:C:/Users/lgg/Desktop/hithanbo/dave_ws/lgg_xmc/Libraries/XMCLib/inc\xmc_usic.h ****  * 
  18:C:/Users/lgg/Desktop/hithanbo/dave_ws/lgg_xmc/Libraries/XMCLib/inc\xmc_usic.h ****  * Redistributions in binary form must reproduce the above copyright notice, this list of condition
  19:C:/Users/lgg/Desktop/hithanbo/dave_ws/lgg_xmc/Libraries/XMCLib/inc\xmc_usic.h ****  * disclaimer in the documentation and/or other materials provided with the distribution.          
  20:C:/Users/lgg/Desktop/hithanbo/dave_ws/lgg_xmc/Libraries/XMCLib/inc\xmc_usic.h ****  * 
  21:C:/Users/lgg/Desktop/hithanbo/dave_ws/lgg_xmc/Libraries/XMCLib/inc\xmc_usic.h ****  * Neither the name of the copyright holders nor the names of its contributors may be used to endor
  22:C:/Users/lgg/Desktop/hithanbo/dave_ws/lgg_xmc/Libraries/XMCLib/inc\xmc_usic.h ****  * products derived from this software without specific prior written permission.                  
  23:C:/Users/lgg/Desktop/hithanbo/dave_ws/lgg_xmc/Libraries/XMCLib/inc\xmc_usic.h ****  *                                                                              
  24:C:/Users/lgg/Desktop/hithanbo/dave_ws/lgg_xmc/Libraries/XMCLib/inc\xmc_usic.h ****  * THIS SOFTWARE IS PROVIDED BY THE COPYRIGHT HOLDERS AND CONTRIBUTORS "AS IS" AND ANY EXPRESS OR I
  25:C:/Users/lgg/Desktop/hithanbo/dave_ws/lgg_xmc/Libraries/XMCLib/inc\xmc_usic.h ****  * INCLUDING, BUT NOT LIMITED TO, THE IMPLIED WARRANTIES OF MERCHANTABILITY AND FITNESS FOR A PARTI
  26:C:/Users/lgg/Desktop/hithanbo/dave_ws/lgg_xmc/Libraries/XMCLib/inc\xmc_usic.h ****  * DISCLAIMED. IN NO EVENT SHALL THE COPYRIGHT HOLDER OR CONTRIBUTORS BE LIABLE  FOR ANY DIRECT, IN
  27:C:/Users/lgg/Desktop/hithanbo/dave_ws/lgg_xmc/Libraries/XMCLib/inc\xmc_usic.h ****  * SPECIAL, EXEMPLARY, OR CONSEQUENTIAL DAMAGES (INCLUDING, BUT NOT LIMITED TO, PROCUREMENT OF SUBS
  28:C:/Users/lgg/Desktop/hithanbo/dave_ws/lgg_xmc/Libraries/XMCLib/inc\xmc_usic.h ****  * SERVICES; LOSS OF USE, DATA, OR PROFITS; OR BUSINESS INTERRUPTION) HOWEVER CAUSED AND ON ANY THE
  29:C:/Users/lgg/Desktop/hithanbo/dave_ws/lgg_xmc/Libraries/XMCLib/inc\xmc_usic.h ****  * WHETHER IN CONTRACT, STRICT LIABILITY,OR TORT (INCLUDING NEGLIGENCE OR OTHERWISE) ARISING IN ANY
  30:C:/Users/lgg/Desktop/hithanbo/dave_ws/lgg_xmc/Libraries/XMCLib/inc\xmc_usic.h ****  * OF THIS SOFTWARE, EVEN IF ADVISED OF THE POSSIBILITY OF SUCH DAMAGE.                            
  31:C:/Users/lgg/Desktop/hithanbo/dave_ws/lgg_xmc/Libraries/XMCLib/inc\xmc_usic.h ****  *                                                                              
  32:C:/Users/lgg/Desktop/hithanbo/dave_ws/lgg_xmc/Libraries/XMCLib/inc\xmc_usic.h ****  * To improve the quality of the software, users are encouraged to share modifications, enhancement
  33:C:/Users/lgg/Desktop/hithanbo/dave_ws/lgg_xmc/Libraries/XMCLib/inc\xmc_usic.h ****  * Infineon Technologies AG dave@infineon.com).                                                    
  34:C:/Users/lgg/Desktop/hithanbo/dave_ws/lgg_xmc/Libraries/XMCLib/inc\xmc_usic.h ****  **************************************************************************************************
  35:C:/Users/lgg/Desktop/hithanbo/dave_ws/lgg_xmc/Libraries/XMCLib/inc\xmc_usic.h ****  *
  36:C:/Users/lgg/Desktop/hithanbo/dave_ws/lgg_xmc/Libraries/XMCLib/inc\xmc_usic.h ****  * Change History
  37:C:/Users/lgg/Desktop/hithanbo/dave_ws/lgg_xmc/Libraries/XMCLib/inc\xmc_usic.h ****  * --------------
  38:C:/Users/lgg/Desktop/hithanbo/dave_ws/lgg_xmc/Libraries/XMCLib/inc\xmc_usic.h ****  *
  39:C:/Users/lgg/Desktop/hithanbo/dave_ws/lgg_xmc/Libraries/XMCLib/inc\xmc_usic.h ****  * 2015-02-20:
  40:C:/Users/lgg/Desktop/hithanbo/dave_ws/lgg_xmc/Libraries/XMCLib/inc\xmc_usic.h ****  *     - Initial draft<br>
  41:C:/Users/lgg/Desktop/hithanbo/dave_ws/lgg_xmc/Libraries/XMCLib/inc\xmc_usic.h ****  *     - Documentation improved <br>
  42:C:/Users/lgg/Desktop/hithanbo/dave_ws/lgg_xmc/Libraries/XMCLib/inc\xmc_usic.h ****  *
  43:C:/Users/lgg/Desktop/hithanbo/dave_ws/lgg_xmc/Libraries/XMCLib/inc\xmc_usic.h ****  * 2015-05-08:
  44:C:/Users/lgg/Desktop/hithanbo/dave_ws/lgg_xmc/Libraries/XMCLib/inc\xmc_usic.h ****  *     - Added XMC_USIC_CH_SetInputTriggerCombinationMode() and XMC_USIC_CH_SetTransmitBufferStatus
  45:C:/Users/lgg/Desktop/hithanbo/dave_ws/lgg_xmc/Libraries/XMCLib/inc\xmc_usic.h ****  *      
  46:C:/Users/lgg/Desktop/hithanbo/dave_ws/lgg_xmc/Libraries/XMCLib/inc\xmc_usic.h ****  * 2015-06-20:
  47:C:/Users/lgg/Desktop/hithanbo/dave_ws/lgg_xmc/Libraries/XMCLib/inc\xmc_usic.h ****  *     - Removed version macros and declaration of GetDriverVersion API
  48:C:/Users/lgg/Desktop/hithanbo/dave_ws/lgg_xmc/Libraries/XMCLib/inc\xmc_usic.h ****  * 
  49:C:/Users/lgg/Desktop/hithanbo/dave_ws/lgg_xmc/Libraries/XMCLib/inc\xmc_usic.h ****  * 2015-08-17:
  50:C:/Users/lgg/Desktop/hithanbo/dave_ws/lgg_xmc/Libraries/XMCLib/inc\xmc_usic.h ****  *     - Bug fixed in XMC_USIC_CH_SetTransmitBufferStatus API. OR operator removed.
  51:C:/Users/lgg/Desktop/hithanbo/dave_ws/lgg_xmc/Libraries/XMCLib/inc\xmc_usic.h ****  *
  52:C:/Users/lgg/Desktop/hithanbo/dave_ws/lgg_xmc/Libraries/XMCLib/inc\xmc_usic.h ****  * 2015-08-24:
  53:C:/Users/lgg/Desktop/hithanbo/dave_ws/lgg_xmc/Libraries/XMCLib/inc\xmc_usic.h ****  *     - Added APIs for enabling/disabling delay compensation XMC_USIC_CH_DisableDelayCompensation(
  54:C:/Users/lgg/Desktop/hithanbo/dave_ws/lgg_xmc/Libraries/XMCLib/inc\xmc_usic.h ****  *       XMC_USIC_CH_DisableDelayCompensation()
  55:C:/Users/lgg/Desktop/hithanbo/dave_ws/lgg_xmc/Libraries/XMCLib/inc\xmc_usic.h ****  *
  56:C:/Users/lgg/Desktop/hithanbo/dave_ws/lgg_xmc/Libraries/XMCLib/inc\xmc_usic.h ****  * 2015-08-25:
  57:C:/Users/lgg/Desktop/hithanbo/dave_ws/lgg_xmc/Libraries/XMCLib/inc\xmc_usic.h ****  *     - Added APIs for defining if the data shift unit input is derived
  58:C:/Users/lgg/Desktop/hithanbo/dave_ws/lgg_xmc/Libraries/XMCLib/inc\xmc_usic.h ****  *       from the input data path DXn or from the selected protocol pre-processors: XMC_USIC_CH_Con
  59:C:/Users/lgg/Desktop/hithanbo/dave_ws/lgg_xmc/Libraries/XMCLib/inc\xmc_usic.h ****  *       and XMC_USIC_CH_ConnectInputDataShiftToDataInput()
  60:C:/Users/lgg/Desktop/hithanbo/dave_ws/lgg_xmc/Libraries/XMCLib/inc\xmc_usic.h ****  *
  61:C:/Users/lgg/Desktop/hithanbo/dave_ws/lgg_xmc/Libraries/XMCLib/inc\xmc_usic.h ****  * 2015-08-27:
  62:C:/Users/lgg/Desktop/hithanbo/dave_ws/lgg_xmc/Libraries/XMCLib/inc\xmc_usic.h ****  *     - Fixed bug in XMC_USIC_CH_BRG_CLOCK_SOURCE_DX1T value.
  63:C:/Users/lgg/Desktop/hithanbo/dave_ws/lgg_xmc/Libraries/XMCLib/inc\xmc_usic.h ****  *     - Added APIs for direct TBUF access: XMC_USIC_CH_WriteToTBUF() and XMC_USIC_CH_WriteToTBUFTC
  64:C:/Users/lgg/Desktop/hithanbo/dave_ws/lgg_xmc/Libraries/XMCLib/inc\xmc_usic.h ****  *     - Added APIs for external input for BRG configuration:XMC_USIC_CH_ConfigExternalInputSignalT
  65:C:/Users/lgg/Desktop/hithanbo/dave_ws/lgg_xmc/Libraries/XMCLib/inc\xmc_usic.h ****  *
  66:C:/Users/lgg/Desktop/hithanbo/dave_ws/lgg_xmc/Libraries/XMCLib/inc\xmc_usic.h ****  * 2015-08-28:
  67:C:/Users/lgg/Desktop/hithanbo/dave_ws/lgg_xmc/Libraries/XMCLib/inc\xmc_usic.h ****  *     - Added API for enabling the transfer trigger unit to set bit TCSR.TE if the trigger signal 
  68:C:/Users/lgg/Desktop/hithanbo/dave_ws/lgg_xmc/Libraries/XMCLib/inc\xmc_usic.h ****  *       Clear to Send (CTS) signal: XMC_USIC_CH_EnableTBUFDataValidTrigger() and XMC_USIC_CH_Disab
  69:C:/Users/lgg/Desktop/hithanbo/dave_ws/lgg_xmc/Libraries/XMCLib/inc\xmc_usic.h ****  *
  70:C:/Users/lgg/Desktop/hithanbo/dave_ws/lgg_xmc/Libraries/XMCLib/inc\xmc_usic.h ****  * 2016-03-09:
  71:C:/Users/lgg/Desktop/hithanbo/dave_ws/lgg_xmc/Libraries/XMCLib/inc\xmc_usic.h ****  *     - Optimization of write only registers
  72:C:/Users/lgg/Desktop/hithanbo/dave_ws/lgg_xmc/Libraries/XMCLib/inc\xmc_usic.h ****  *
  73:C:/Users/lgg/Desktop/hithanbo/dave_ws/lgg_xmc/Libraries/XMCLib/inc\xmc_usic.h ****  * 2016-04-10:
  74:C:/Users/lgg/Desktop/hithanbo/dave_ws/lgg_xmc/Libraries/XMCLib/inc\xmc_usic.h ****  *     - Added an API to put the data into FIFO when hardware port control is enabled: XMC_USIC_CH_
  75:C:/Users/lgg/Desktop/hithanbo/dave_ws/lgg_xmc/Libraries/XMCLib/inc\xmc_usic.h ****  *
  76:C:/Users/lgg/Desktop/hithanbo/dave_ws/lgg_xmc/Libraries/XMCLib/inc\xmc_usic.h ****  * 2017-02-10:
  77:C:/Users/lgg/Desktop/hithanbo/dave_ws/lgg_xmc/Libraries/XMCLib/inc\xmc_usic.h ****  *     - Added XMC_USIC_CH_SetShiftDirection() to allow selection of shift direction of the data wo
  78:C:/Users/lgg/Desktop/hithanbo/dave_ws/lgg_xmc/Libraries/XMCLib/inc\xmc_usic.h ****  *     - Added XMC_USIC_CH_GetCaptureTimerValue() and XMC_USIC_CH_SetFractionalDivider()
  79:C:/Users/lgg/Desktop/hithanbo/dave_ws/lgg_xmc/Libraries/XMCLib/inc\xmc_usic.h ****  *
  80:C:/Users/lgg/Desktop/hithanbo/dave_ws/lgg_xmc/Libraries/XMCLib/inc\xmc_usic.h ****  * 2017-09-08:
  81:C:/Users/lgg/Desktop/hithanbo/dave_ws/lgg_xmc/Libraries/XMCLib/inc\xmc_usic.h ****  *     - Fixed value of macro XMC_USIC_CH_SHIFT_DIRECTION_MSB_FIRST used in XMC_USIC_CH_SetShiftDir
  82:C:/Users/lgg/Desktop/hithanbo/dave_ws/lgg_xmc/Libraries/XMCLib/inc\xmc_usic.h ****  *
  83:C:/Users/lgg/Desktop/hithanbo/dave_ws/lgg_xmc/Libraries/XMCLib/inc\xmc_usic.h ****  * @endcond
  84:C:/Users/lgg/Desktop/hithanbo/dave_ws/lgg_xmc/Libraries/XMCLib/inc\xmc_usic.h ****  *
  85:C:/Users/lgg/Desktop/hithanbo/dave_ws/lgg_xmc/Libraries/XMCLib/inc\xmc_usic.h ****  */
  86:C:/Users/lgg/Desktop/hithanbo/dave_ws/lgg_xmc/Libraries/XMCLib/inc\xmc_usic.h **** 
  87:C:/Users/lgg/Desktop/hithanbo/dave_ws/lgg_xmc/Libraries/XMCLib/inc\xmc_usic.h **** #ifndef XMC_USIC_H
  88:C:/Users/lgg/Desktop/hithanbo/dave_ws/lgg_xmc/Libraries/XMCLib/inc\xmc_usic.h **** #define XMC_USIC_H
  89:C:/Users/lgg/Desktop/hithanbo/dave_ws/lgg_xmc/Libraries/XMCLib/inc\xmc_usic.h **** /*******************************************************************************
  90:C:/Users/lgg/Desktop/hithanbo/dave_ws/lgg_xmc/Libraries/XMCLib/inc\xmc_usic.h ****  * HEADER FILES
  91:C:/Users/lgg/Desktop/hithanbo/dave_ws/lgg_xmc/Libraries/XMCLib/inc\xmc_usic.h ****  *******************************************************************************/
  92:C:/Users/lgg/Desktop/hithanbo/dave_ws/lgg_xmc/Libraries/XMCLib/inc\xmc_usic.h **** 
  93:C:/Users/lgg/Desktop/hithanbo/dave_ws/lgg_xmc/Libraries/XMCLib/inc\xmc_usic.h **** #include "xmc_common.h"
  94:C:/Users/lgg/Desktop/hithanbo/dave_ws/lgg_xmc/Libraries/XMCLib/inc\xmc_usic.h **** 
  95:C:/Users/lgg/Desktop/hithanbo/dave_ws/lgg_xmc/Libraries/XMCLib/inc\xmc_usic.h **** /**
  96:C:/Users/lgg/Desktop/hithanbo/dave_ws/lgg_xmc/Libraries/XMCLib/inc\xmc_usic.h ****  * @addtogroup XMClib XMC Peripheral Library
  97:C:/Users/lgg/Desktop/hithanbo/dave_ws/lgg_xmc/Libraries/XMCLib/inc\xmc_usic.h ****  * @{
  98:C:/Users/lgg/Desktop/hithanbo/dave_ws/lgg_xmc/Libraries/XMCLib/inc\xmc_usic.h ****  */
  99:C:/Users/lgg/Desktop/hithanbo/dave_ws/lgg_xmc/Libraries/XMCLib/inc\xmc_usic.h **** 
 100:C:/Users/lgg/Desktop/hithanbo/dave_ws/lgg_xmc/Libraries/XMCLib/inc\xmc_usic.h **** /**
 101:C:/Users/lgg/Desktop/hithanbo/dave_ws/lgg_xmc/Libraries/XMCLib/inc\xmc_usic.h ****  * @addtogroup USIC
 102:C:/Users/lgg/Desktop/hithanbo/dave_ws/lgg_xmc/Libraries/XMCLib/inc\xmc_usic.h ****  * @brief Universal Serial Interface Channel(USIC) driver for serial communication.
 103:C:/Users/lgg/Desktop/hithanbo/dave_ws/lgg_xmc/Libraries/XMCLib/inc\xmc_usic.h ****  *
 104:C:/Users/lgg/Desktop/hithanbo/dave_ws/lgg_xmc/Libraries/XMCLib/inc\xmc_usic.h ****  * The Universal Serial Interface Channel(USIC) module is a flexible interface module
 105:C:/Users/lgg/Desktop/hithanbo/dave_ws/lgg_xmc/Libraries/XMCLib/inc\xmc_usic.h ****  * covering several serial communication protocols. A USIC module contains two
 106:C:/Users/lgg/Desktop/hithanbo/dave_ws/lgg_xmc/Libraries/XMCLib/inc\xmc_usic.h ****  * independent communication channels named USICx_CH0 and USICx_CH1, with x
 107:C:/Users/lgg/Desktop/hithanbo/dave_ws/lgg_xmc/Libraries/XMCLib/inc\xmc_usic.h ****  * being the number of the USIC module. The user can program, during run-time, which protocol will 
 108:C:/Users/lgg/Desktop/hithanbo/dave_ws/lgg_xmc/Libraries/XMCLib/inc\xmc_usic.h ****  * by each communication channel and which pins are used.
 109:C:/Users/lgg/Desktop/hithanbo/dave_ws/lgg_xmc/Libraries/XMCLib/inc\xmc_usic.h ****  * The driver provides APIs, configuration structures and enumerations to configure common features
 110:C:/Users/lgg/Desktop/hithanbo/dave_ws/lgg_xmc/Libraries/XMCLib/inc\xmc_usic.h ****  * communication protocols.
 111:C:/Users/lgg/Desktop/hithanbo/dave_ws/lgg_xmc/Libraries/XMCLib/inc\xmc_usic.h ****  * 
 112:C:/Users/lgg/Desktop/hithanbo/dave_ws/lgg_xmc/Libraries/XMCLib/inc\xmc_usic.h ****  * USIC driver features:
 113:C:/Users/lgg/Desktop/hithanbo/dave_ws/lgg_xmc/Libraries/XMCLib/inc\xmc_usic.h ****  * -# Allows configuration of FIFO for transmit and receive functions.
 114:C:/Users/lgg/Desktop/hithanbo/dave_ws/lgg_xmc/Libraries/XMCLib/inc\xmc_usic.h ****  * -# Provides a structure type XMC_USIC_CH_t to represent the USIC channel registers in a programm
 115:C:/Users/lgg/Desktop/hithanbo/dave_ws/lgg_xmc/Libraries/XMCLib/inc\xmc_usic.h ****  friendly format.
 116:C:/Users/lgg/Desktop/hithanbo/dave_ws/lgg_xmc/Libraries/XMCLib/inc\xmc_usic.h ****  * -# Allows configuration of automatic update for frame length, word length, slave select or slave
 117:C:/Users/lgg/Desktop/hithanbo/dave_ws/lgg_xmc/Libraries/XMCLib/inc\xmc_usic.h ****  * -# Allows transmission of data to FIFO using XMC_USIC_CH_TXFIFO_PutData() and XMC_USIC_CH_TXFIFO
 118:C:/Users/lgg/Desktop/hithanbo/dave_ws/lgg_xmc/Libraries/XMCLib/inc\xmc_usic.h ****  * -# Allows reading of received data in FIFO using XMC_USIC_CH_RXFIFO_GetData()
 119:C:/Users/lgg/Desktop/hithanbo/dave_ws/lgg_xmc/Libraries/XMCLib/inc\xmc_usic.h ****  * -# Allows configuration of baudrate using XMC_USIC_CH_SetBaudrate()
 120:C:/Users/lgg/Desktop/hithanbo/dave_ws/lgg_xmc/Libraries/XMCLib/inc\xmc_usic.h ****  * -# Provides API to trigger interrupts using XMC_USIC_CH_TriggerServiceRequest()
 121:C:/Users/lgg/Desktop/hithanbo/dave_ws/lgg_xmc/Libraries/XMCLib/inc\xmc_usic.h ****  * @{
 122:C:/Users/lgg/Desktop/hithanbo/dave_ws/lgg_xmc/Libraries/XMCLib/inc\xmc_usic.h ****  */
 123:C:/Users/lgg/Desktop/hithanbo/dave_ws/lgg_xmc/Libraries/XMCLib/inc\xmc_usic.h **** 
 124:C:/Users/lgg/Desktop/hithanbo/dave_ws/lgg_xmc/Libraries/XMCLib/inc\xmc_usic.h **** /*******************************************************************************
 125:C:/Users/lgg/Desktop/hithanbo/dave_ws/lgg_xmc/Libraries/XMCLib/inc\xmc_usic.h ****  * MACROS
 126:C:/Users/lgg/Desktop/hithanbo/dave_ws/lgg_xmc/Libraries/XMCLib/inc\xmc_usic.h ****  *******************************************************************************/
 127:C:/Users/lgg/Desktop/hithanbo/dave_ws/lgg_xmc/Libraries/XMCLib/inc\xmc_usic.h **** 
 128:C:/Users/lgg/Desktop/hithanbo/dave_ws/lgg_xmc/Libraries/XMCLib/inc\xmc_usic.h **** #define XMC_USIC0 ((XMC_USIC_t *)USIC0_BASE)			/**< USIC0 module base address */
 129:C:/Users/lgg/Desktop/hithanbo/dave_ws/lgg_xmc/Libraries/XMCLib/inc\xmc_usic.h **** #define XMC_USIC0_CH0 ((XMC_USIC_CH_t *)USIC0_CH0_BASE)	/**< USIC0 channel 0 base address */
 130:C:/Users/lgg/Desktop/hithanbo/dave_ws/lgg_xmc/Libraries/XMCLib/inc\xmc_usic.h **** #define XMC_USIC0_CH1 ((XMC_USIC_CH_t *)USIC0_CH1_BASE)	/**< USIC0 channel 1 base address */
 131:C:/Users/lgg/Desktop/hithanbo/dave_ws/lgg_xmc/Libraries/XMCLib/inc\xmc_usic.h **** 
 132:C:/Users/lgg/Desktop/hithanbo/dave_ws/lgg_xmc/Libraries/XMCLib/inc\xmc_usic.h **** #if defined(USIC1)
 133:C:/Users/lgg/Desktop/hithanbo/dave_ws/lgg_xmc/Libraries/XMCLib/inc\xmc_usic.h **** #define XMC_USIC1 ((XMC_USIC_t *)USIC1_BASE)			/**< USIC1 module base address */
 134:C:/Users/lgg/Desktop/hithanbo/dave_ws/lgg_xmc/Libraries/XMCLib/inc\xmc_usic.h **** #define XMC_USIC1_CH0 ((XMC_USIC_CH_t *)USIC1_CH0_BASE)	/**< USIC1 channel 0 base address */
 135:C:/Users/lgg/Desktop/hithanbo/dave_ws/lgg_xmc/Libraries/XMCLib/inc\xmc_usic.h **** #define XMC_USIC1_CH1 ((XMC_USIC_CH_t *)USIC1_CH1_BASE)	/**< USIC1 channel 1 base address */
 136:C:/Users/lgg/Desktop/hithanbo/dave_ws/lgg_xmc/Libraries/XMCLib/inc\xmc_usic.h **** #endif
 137:C:/Users/lgg/Desktop/hithanbo/dave_ws/lgg_xmc/Libraries/XMCLib/inc\xmc_usic.h **** 
 138:C:/Users/lgg/Desktop/hithanbo/dave_ws/lgg_xmc/Libraries/XMCLib/inc\xmc_usic.h **** #if defined(USIC2)
 139:C:/Users/lgg/Desktop/hithanbo/dave_ws/lgg_xmc/Libraries/XMCLib/inc\xmc_usic.h **** #define XMC_USIC2 ((XMC_USIC_t *)USIC2_BASE)			/**< USIC2 module base address */
 140:C:/Users/lgg/Desktop/hithanbo/dave_ws/lgg_xmc/Libraries/XMCLib/inc\xmc_usic.h **** #define XMC_USIC2_CH0 ((XMC_USIC_CH_t *)USIC2_CH0_BASE)	/**< USIC2 channel 0 base address */
 141:C:/Users/lgg/Desktop/hithanbo/dave_ws/lgg_xmc/Libraries/XMCLib/inc\xmc_usic.h **** #define XMC_USIC2_CH1 ((XMC_USIC_CH_t *)USIC2_CH1_BASE)	/**< USIC2 channel 1 base address */
 142:C:/Users/lgg/Desktop/hithanbo/dave_ws/lgg_xmc/Libraries/XMCLib/inc\xmc_usic.h **** #endif
 143:C:/Users/lgg/Desktop/hithanbo/dave_ws/lgg_xmc/Libraries/XMCLib/inc\xmc_usic.h **** 
 144:C:/Users/lgg/Desktop/hithanbo/dave_ws/lgg_xmc/Libraries/XMCLib/inc\xmc_usic.h **** #define USIC_CH_DXCR_DSEL_Msk  USIC_CH_DX0CR_DSEL_Msk   /**< Common mask for DSEL bitfield mask in 
 145:C:/Users/lgg/Desktop/hithanbo/dave_ws/lgg_xmc/Libraries/XMCLib/inc\xmc_usic.h **** #define USIC_CH_DXCR_DSEL_Pos  USIC_CH_DX0CR_DSEL_Pos   /**< Common mask for DSEL bitfield position
 146:C:/Users/lgg/Desktop/hithanbo/dave_ws/lgg_xmc/Libraries/XMCLib/inc\xmc_usic.h **** #define USIC_CH_DXCR_SFSEL_Pos USIC_CH_DX0CR_SFSEL_Pos  /**< Common mask for SFSEL bitfield positio
 147:C:/Users/lgg/Desktop/hithanbo/dave_ws/lgg_xmc/Libraries/XMCLib/inc\xmc_usic.h **** #define USIC_CH_DXCR_SFSEL_Msk USIC_CH_DX0CR_SFSEL_Msk  /**< Common mask for SFSEL bitfield mask in
 148:C:/Users/lgg/Desktop/hithanbo/dave_ws/lgg_xmc/Libraries/XMCLib/inc\xmc_usic.h **** #define USIC_CH_DXCR_DPOL_Msk  USIC_CH_DX0CR_DPOL_Msk   /**< Common mask for DPOL bitfield mask in 
 149:C:/Users/lgg/Desktop/hithanbo/dave_ws/lgg_xmc/Libraries/XMCLib/inc\xmc_usic.h **** #define USIC_CH_DXCR_DFEN_Msk  USIC_CH_DX0CR_DFEN_Msk   /**< Common mask for DFEN bitfield mask in 
 150:C:/Users/lgg/Desktop/hithanbo/dave_ws/lgg_xmc/Libraries/XMCLib/inc\xmc_usic.h **** #define USIC_CH_DXCR_DSEN_Msk  USIC_CH_DX0CR_DSEN_Msk   /**< Common mask for DSEN bitfield mask in 
 151:C:/Users/lgg/Desktop/hithanbo/dave_ws/lgg_xmc/Libraries/XMCLib/inc\xmc_usic.h **** #define USIC_CH_DXCR_CM_Pos    USIC_CH_DX0CR_CM_Pos     /**< Common mask for CM bitfield position i
 152:C:/Users/lgg/Desktop/hithanbo/dave_ws/lgg_xmc/Libraries/XMCLib/inc\xmc_usic.h **** #define USIC_CH_DXCR_CM_Msk    USIC_CH_DX0CR_CM_Msk     /**< Common mask for CM bitfield mask in DX
 153:C:/Users/lgg/Desktop/hithanbo/dave_ws/lgg_xmc/Libraries/XMCLib/inc\xmc_usic.h **** #define USIC_CH_DXCR_INSW_Msk  USIC_CH_DX0CR_INSW_Msk   /**< Common mask for INSW bitfield mask in 
 154:C:/Users/lgg/Desktop/hithanbo/dave_ws/lgg_xmc/Libraries/XMCLib/inc\xmc_usic.h **** #define USIC_CH_DXCR_INSW_pos  USIC_CH_DX0CR_INSW_Pos   /**< Common mask for INSW bitfield position
 155:C:/Users/lgg/Desktop/hithanbo/dave_ws/lgg_xmc/Libraries/XMCLib/inc\xmc_usic.h **** 
 156:C:/Users/lgg/Desktop/hithanbo/dave_ws/lgg_xmc/Libraries/XMCLib/inc\xmc_usic.h **** #if UC_FAMILY == XMC1
 157:C:/Users/lgg/Desktop/hithanbo/dave_ws/lgg_xmc/Libraries/XMCLib/inc\xmc_usic.h ****  #include "xmc1_usic_map.h"
 158:C:/Users/lgg/Desktop/hithanbo/dave_ws/lgg_xmc/Libraries/XMCLib/inc\xmc_usic.h **** #endif
 159:C:/Users/lgg/Desktop/hithanbo/dave_ws/lgg_xmc/Libraries/XMCLib/inc\xmc_usic.h **** 
 160:C:/Users/lgg/Desktop/hithanbo/dave_ws/lgg_xmc/Libraries/XMCLib/inc\xmc_usic.h **** #if UC_FAMILY == XMC4
 161:C:/Users/lgg/Desktop/hithanbo/dave_ws/lgg_xmc/Libraries/XMCLib/inc\xmc_usic.h ****  #include "xmc4_usic_map.h"
 162:C:/Users/lgg/Desktop/hithanbo/dave_ws/lgg_xmc/Libraries/XMCLib/inc\xmc_usic.h **** #endif
 163:C:/Users/lgg/Desktop/hithanbo/dave_ws/lgg_xmc/Libraries/XMCLib/inc\xmc_usic.h **** 
 164:C:/Users/lgg/Desktop/hithanbo/dave_ws/lgg_xmc/Libraries/XMCLib/inc\xmc_usic.h **** /*******************************************************************************
 165:C:/Users/lgg/Desktop/hithanbo/dave_ws/lgg_xmc/Libraries/XMCLib/inc\xmc_usic.h ****  * ENUMS
 166:C:/Users/lgg/Desktop/hithanbo/dave_ws/lgg_xmc/Libraries/XMCLib/inc\xmc_usic.h ****  *******************************************************************************/
 167:C:/Users/lgg/Desktop/hithanbo/dave_ws/lgg_xmc/Libraries/XMCLib/inc\xmc_usic.h **** 
 168:C:/Users/lgg/Desktop/hithanbo/dave_ws/lgg_xmc/Libraries/XMCLib/inc\xmc_usic.h **** /**
 169:C:/Users/lgg/Desktop/hithanbo/dave_ws/lgg_xmc/Libraries/XMCLib/inc\xmc_usic.h ****  * USIC channel driver status
 170:C:/Users/lgg/Desktop/hithanbo/dave_ws/lgg_xmc/Libraries/XMCLib/inc\xmc_usic.h ****  */
 171:C:/Users/lgg/Desktop/hithanbo/dave_ws/lgg_xmc/Libraries/XMCLib/inc\xmc_usic.h **** typedef enum XMC_USIC_CH_STATUS
 172:C:/Users/lgg/Desktop/hithanbo/dave_ws/lgg_xmc/Libraries/XMCLib/inc\xmc_usic.h **** {
 173:C:/Users/lgg/Desktop/hithanbo/dave_ws/lgg_xmc/Libraries/XMCLib/inc\xmc_usic.h ****   XMC_USIC_CH_STATUS_OK,    /**< USIC driver status : OK */
 174:C:/Users/lgg/Desktop/hithanbo/dave_ws/lgg_xmc/Libraries/XMCLib/inc\xmc_usic.h ****   XMC_USIC_CH_STATUS_ERROR, /**< USIC driver status : ERROR */
 175:C:/Users/lgg/Desktop/hithanbo/dave_ws/lgg_xmc/Libraries/XMCLib/inc\xmc_usic.h ****   XMC_USIC_CH_STATUS_BUSY   /**< USIC driver status : BUSY */
 176:C:/Users/lgg/Desktop/hithanbo/dave_ws/lgg_xmc/Libraries/XMCLib/inc\xmc_usic.h **** } XMC_USIC_CH_STATUS_t;
 177:C:/Users/lgg/Desktop/hithanbo/dave_ws/lgg_xmc/Libraries/XMCLib/inc\xmc_usic.h **** 
 178:C:/Users/lgg/Desktop/hithanbo/dave_ws/lgg_xmc/Libraries/XMCLib/inc\xmc_usic.h **** /**
 179:C:/Users/lgg/Desktop/hithanbo/dave_ws/lgg_xmc/Libraries/XMCLib/inc\xmc_usic.h **** * USIC channel kernel mode
 180:C:/Users/lgg/Desktop/hithanbo/dave_ws/lgg_xmc/Libraries/XMCLib/inc\xmc_usic.h **** */
 181:C:/Users/lgg/Desktop/hithanbo/dave_ws/lgg_xmc/Libraries/XMCLib/inc\xmc_usic.h **** typedef enum XMC_USIC_CH_KERNEL_MODE
 182:C:/Users/lgg/Desktop/hithanbo/dave_ws/lgg_xmc/Libraries/XMCLib/inc\xmc_usic.h **** {
 183:C:/Users/lgg/Desktop/hithanbo/dave_ws/lgg_xmc/Libraries/XMCLib/inc\xmc_usic.h ****   XMC_USIC_CH_KERNEL_MODE_RUN_0  = 0x0UL,  /**< Run mode 0 (transmission and reception possible)*/
 184:C:/Users/lgg/Desktop/hithanbo/dave_ws/lgg_xmc/Libraries/XMCLib/inc\xmc_usic.h ****   XMC_USIC_CH_KERNEL_MODE_RUN_1  = 0x1UL << USIC_CH_KSCFG_NOMCFG_Pos,  /**< Run mode 1 (transmissio
 185:C:/Users/lgg/Desktop/hithanbo/dave_ws/lgg_xmc/Libraries/XMCLib/inc\xmc_usic.h ****   XMC_USIC_CH_KERNEL_MODE_STOP_0 = 0x2UL << USIC_CH_KSCFG_NOMCFG_Pos,  /**< Stop mode 0 (no transmi
 186:C:/Users/lgg/Desktop/hithanbo/dave_ws/lgg_xmc/Libraries/XMCLib/inc\xmc_usic.h ****   XMC_USIC_CH_KERNEL_MODE_STOP_1 = 0x3UL << USIC_CH_KSCFG_NOMCFG_Pos   /**< Stop mode 1 (both trans
 187:C:/Users/lgg/Desktop/hithanbo/dave_ws/lgg_xmc/Libraries/XMCLib/inc\xmc_usic.h **** } XMC_USIC_CH_KERNEL_MODE_t;
 188:C:/Users/lgg/Desktop/hithanbo/dave_ws/lgg_xmc/Libraries/XMCLib/inc\xmc_usic.h **** 
 189:C:/Users/lgg/Desktop/hithanbo/dave_ws/lgg_xmc/Libraries/XMCLib/inc\xmc_usic.h **** /**
 190:C:/Users/lgg/Desktop/hithanbo/dave_ws/lgg_xmc/Libraries/XMCLib/inc\xmc_usic.h ****  * USIC channel operating mode
 191:C:/Users/lgg/Desktop/hithanbo/dave_ws/lgg_xmc/Libraries/XMCLib/inc\xmc_usic.h ****  */
 192:C:/Users/lgg/Desktop/hithanbo/dave_ws/lgg_xmc/Libraries/XMCLib/inc\xmc_usic.h **** typedef enum XMC_USIC_CH_OPERATING_MODE
 193:C:/Users/lgg/Desktop/hithanbo/dave_ws/lgg_xmc/Libraries/XMCLib/inc\xmc_usic.h **** {
 194:C:/Users/lgg/Desktop/hithanbo/dave_ws/lgg_xmc/Libraries/XMCLib/inc\xmc_usic.h ****   XMC_USIC_CH_OPERATING_MODE_IDLE = 0x0UL, /**< USIC channel idle */
 195:C:/Users/lgg/Desktop/hithanbo/dave_ws/lgg_xmc/Libraries/XMCLib/inc\xmc_usic.h ****   XMC_USIC_CH_OPERATING_MODE_SPI  = 0x1UL << USIC_CH_CCR_MODE_Pos, /**< SPI mode */
 196:C:/Users/lgg/Desktop/hithanbo/dave_ws/lgg_xmc/Libraries/XMCLib/inc\xmc_usic.h ****   XMC_USIC_CH_OPERATING_MODE_UART = 0x2UL << USIC_CH_CCR_MODE_Pos, /**< UART mode */
 197:C:/Users/lgg/Desktop/hithanbo/dave_ws/lgg_xmc/Libraries/XMCLib/inc\xmc_usic.h ****   XMC_USIC_CH_OPERATING_MODE_I2S  = 0x3UL << USIC_CH_CCR_MODE_Pos, /**< I2S mode */
 198:C:/Users/lgg/Desktop/hithanbo/dave_ws/lgg_xmc/Libraries/XMCLib/inc\xmc_usic.h ****   XMC_USIC_CH_OPERATING_MODE_I2C  = 0x4UL << USIC_CH_CCR_MODE_Pos  /**< I2C mode */
 199:C:/Users/lgg/Desktop/hithanbo/dave_ws/lgg_xmc/Libraries/XMCLib/inc\xmc_usic.h **** } XMC_USIC_CH_OPERATING_MODE_t;
 200:C:/Users/lgg/Desktop/hithanbo/dave_ws/lgg_xmc/Libraries/XMCLib/inc\xmc_usic.h **** 
 201:C:/Users/lgg/Desktop/hithanbo/dave_ws/lgg_xmc/Libraries/XMCLib/inc\xmc_usic.h **** /**
 202:C:/Users/lgg/Desktop/hithanbo/dave_ws/lgg_xmc/Libraries/XMCLib/inc\xmc_usic.h ****  * USIC channel inputs
 203:C:/Users/lgg/Desktop/hithanbo/dave_ws/lgg_xmc/Libraries/XMCLib/inc\xmc_usic.h ****  */
 204:C:/Users/lgg/Desktop/hithanbo/dave_ws/lgg_xmc/Libraries/XMCLib/inc\xmc_usic.h **** typedef enum XMC_USIC_CH_INPUT
 205:C:/Users/lgg/Desktop/hithanbo/dave_ws/lgg_xmc/Libraries/XMCLib/inc\xmc_usic.h **** {
 206:C:/Users/lgg/Desktop/hithanbo/dave_ws/lgg_xmc/Libraries/XMCLib/inc\xmc_usic.h ****   XMC_USIC_CH_INPUT_DX0, /**< DX0 input */
 207:C:/Users/lgg/Desktop/hithanbo/dave_ws/lgg_xmc/Libraries/XMCLib/inc\xmc_usic.h ****   XMC_USIC_CH_INPUT_DX1, /**< DX1 input */
 208:C:/Users/lgg/Desktop/hithanbo/dave_ws/lgg_xmc/Libraries/XMCLib/inc\xmc_usic.h ****   XMC_USIC_CH_INPUT_DX2, /**< DX2 input */
 209:C:/Users/lgg/Desktop/hithanbo/dave_ws/lgg_xmc/Libraries/XMCLib/inc\xmc_usic.h ****   XMC_USIC_CH_INPUT_DX3, /**< DX3 input */
 210:C:/Users/lgg/Desktop/hithanbo/dave_ws/lgg_xmc/Libraries/XMCLib/inc\xmc_usic.h ****   XMC_USIC_CH_INPUT_DX4, /**< DX4 input */
 211:C:/Users/lgg/Desktop/hithanbo/dave_ws/lgg_xmc/Libraries/XMCLib/inc\xmc_usic.h ****   XMC_USIC_CH_INPUT_DX5  /**< DX5 input */
 212:C:/Users/lgg/Desktop/hithanbo/dave_ws/lgg_xmc/Libraries/XMCLib/inc\xmc_usic.h **** } XMC_USIC_CH_INPUT_t;
 213:C:/Users/lgg/Desktop/hithanbo/dave_ws/lgg_xmc/Libraries/XMCLib/inc\xmc_usic.h **** 
 214:C:/Users/lgg/Desktop/hithanbo/dave_ws/lgg_xmc/Libraries/XMCLib/inc\xmc_usic.h **** /**
 215:C:/Users/lgg/Desktop/hithanbo/dave_ws/lgg_xmc/Libraries/XMCLib/inc\xmc_usic.h ****  * USIC channel input source sampling frequency
 216:C:/Users/lgg/Desktop/hithanbo/dave_ws/lgg_xmc/Libraries/XMCLib/inc\xmc_usic.h ****  */
 217:C:/Users/lgg/Desktop/hithanbo/dave_ws/lgg_xmc/Libraries/XMCLib/inc\xmc_usic.h **** typedef enum XMC_USIC_CH_INPUT_SAMPLING_FREQ
 218:C:/Users/lgg/Desktop/hithanbo/dave_ws/lgg_xmc/Libraries/XMCLib/inc\xmc_usic.h **** {
 219:C:/Users/lgg/Desktop/hithanbo/dave_ws/lgg_xmc/Libraries/XMCLib/inc\xmc_usic.h ****   XMC_USIC_CH_INPUT_SAMPLING_FREQ_FPERIPH            = 0x0UL, /**< Use fperiph frequency for input 
 220:C:/Users/lgg/Desktop/hithanbo/dave_ws/lgg_xmc/Libraries/XMCLib/inc\xmc_usic.h ****   XMC_USIC_CH_INPUT_SAMPLING_FREQ_FRACTIONAL_DIVIDER = 0x1UL << USIC_CH_DXCR_SFSEL_Pos  /**< Use fF
 221:C:/Users/lgg/Desktop/hithanbo/dave_ws/lgg_xmc/Libraries/XMCLib/inc\xmc_usic.h **** } XMC_USIC_CH_INPUT_SAMPLING_FREQ_t;
 222:C:/Users/lgg/Desktop/hithanbo/dave_ws/lgg_xmc/Libraries/XMCLib/inc\xmc_usic.h **** 
 223:C:/Users/lgg/Desktop/hithanbo/dave_ws/lgg_xmc/Libraries/XMCLib/inc\xmc_usic.h **** /**
 224:C:/Users/lgg/Desktop/hithanbo/dave_ws/lgg_xmc/Libraries/XMCLib/inc\xmc_usic.h ****  * USIC channel input combination mode
 225:C:/Users/lgg/Desktop/hithanbo/dave_ws/lgg_xmc/Libraries/XMCLib/inc\xmc_usic.h ****  */
 226:C:/Users/lgg/Desktop/hithanbo/dave_ws/lgg_xmc/Libraries/XMCLib/inc\xmc_usic.h **** typedef enum XMC_USIC_CH_INPUT_COMBINATION_MODE
 227:C:/Users/lgg/Desktop/hithanbo/dave_ws/lgg_xmc/Libraries/XMCLib/inc\xmc_usic.h **** {
 228:C:/Users/lgg/Desktop/hithanbo/dave_ws/lgg_xmc/Libraries/XMCLib/inc\xmc_usic.h ****   XMC_USIC_CH_INPUT_COMBINATION_MODE_TRIGGER_DISABLED = 0x0UL, /**< The trigger activation is disab
 229:C:/Users/lgg/Desktop/hithanbo/dave_ws/lgg_xmc/Libraries/XMCLib/inc\xmc_usic.h ****   XMC_USIC_CH_INPUT_COMBINATION_MODE_RISING_EDGE      = 0x1UL, /**< A rising edge activates DXnT*/
 230:C:/Users/lgg/Desktop/hithanbo/dave_ws/lgg_xmc/Libraries/XMCLib/inc\xmc_usic.h ****   XMC_USIC_CH_INPUT_COMBINATION_MODE_FALLING_EDGE     = 0x2UL, /**< A falling edge activates DXnT*/
 231:C:/Users/lgg/Desktop/hithanbo/dave_ws/lgg_xmc/Libraries/XMCLib/inc\xmc_usic.h ****   XMC_USIC_CH_INPUT_COMBINATION_MODE_BOTH_EDGES       = 0x3UL, /**< Both edges activate DXnT*/
 232:C:/Users/lgg/Desktop/hithanbo/dave_ws/lgg_xmc/Libraries/XMCLib/inc\xmc_usic.h **** } XMC_USIC_CH_INPUT_COMBINATION_MODE_t;
 233:C:/Users/lgg/Desktop/hithanbo/dave_ws/lgg_xmc/Libraries/XMCLib/inc\xmc_usic.h **** 
 234:C:/Users/lgg/Desktop/hithanbo/dave_ws/lgg_xmc/Libraries/XMCLib/inc\xmc_usic.h **** /**
 235:C:/Users/lgg/Desktop/hithanbo/dave_ws/lgg_xmc/Libraries/XMCLib/inc\xmc_usic.h ****  * USIC channel data transmission start modes.
 236:C:/Users/lgg/Desktop/hithanbo/dave_ws/lgg_xmc/Libraries/XMCLib/inc\xmc_usic.h ****  * Data shifted out of the transmit pin depends on the value configured for the
 237:C:/Users/lgg/Desktop/hithanbo/dave_ws/lgg_xmc/Libraries/XMCLib/inc\xmc_usic.h ****  * TDEN bitfield of the TCSR register. Following enum values are used for configuring
 238:C:/Users/lgg/Desktop/hithanbo/dave_ws/lgg_xmc/Libraries/XMCLib/inc\xmc_usic.h ****  * the TCSR->TDEN bitfield.
 239:C:/Users/lgg/Desktop/hithanbo/dave_ws/lgg_xmc/Libraries/XMCLib/inc\xmc_usic.h ****  */
 240:C:/Users/lgg/Desktop/hithanbo/dave_ws/lgg_xmc/Libraries/XMCLib/inc\xmc_usic.h **** typedef enum XMC_USIC_CH_START_TRANSMISION_MODE
 241:C:/Users/lgg/Desktop/hithanbo/dave_ws/lgg_xmc/Libraries/XMCLib/inc\xmc_usic.h **** {
 242:C:/Users/lgg/Desktop/hithanbo/dave_ws/lgg_xmc/Libraries/XMCLib/inc\xmc_usic.h ****   XMC_USIC_CH_START_TRANSMISION_DISABLED      = 0x0U, /**< Passive data level is sent out on transm
 243:C:/Users/lgg/Desktop/hithanbo/dave_ws/lgg_xmc/Libraries/XMCLib/inc\xmc_usic.h ****   XMC_USIC_CH_START_TRANSMISION_ON_TDV        = 0x1UL << USIC_CH_TCSR_TDEN_Pos, /**< Transmission o
 244:C:/Users/lgg/Desktop/hithanbo/dave_ws/lgg_xmc/Libraries/XMCLib/inc\xmc_usic.h ****   XMC_USIC_CH_START_TRANSMISION_ON_TDV_DX2S_0 = 0x2UL << USIC_CH_TCSR_TDEN_Pos, /**< Transmission o
 245:C:/Users/lgg/Desktop/hithanbo/dave_ws/lgg_xmc/Libraries/XMCLib/inc\xmc_usic.h ****   XMC_USIC_CH_START_TRANSMISION_ON_TDV_DX2S_1 = 0x3UL << USIC_CH_TCSR_TDEN_Pos  /**< Transmission o
 246:C:/Users/lgg/Desktop/hithanbo/dave_ws/lgg_xmc/Libraries/XMCLib/inc\xmc_usic.h **** } XMC_USIC_CH_START_TRANSMISION_MODE_t;
 247:C:/Users/lgg/Desktop/hithanbo/dave_ws/lgg_xmc/Libraries/XMCLib/inc\xmc_usic.h **** 
 248:C:/Users/lgg/Desktop/hithanbo/dave_ws/lgg_xmc/Libraries/XMCLib/inc\xmc_usic.h **** /**
 249:C:/Users/lgg/Desktop/hithanbo/dave_ws/lgg_xmc/Libraries/XMCLib/inc\xmc_usic.h ****  * USIC channel interrupt node pointers
 250:C:/Users/lgg/Desktop/hithanbo/dave_ws/lgg_xmc/Libraries/XMCLib/inc\xmc_usic.h ****  */
 251:C:/Users/lgg/Desktop/hithanbo/dave_ws/lgg_xmc/Libraries/XMCLib/inc\xmc_usic.h **** typedef enum XMC_USIC_CH_INTERRUPT_NODE_POINTER
 252:C:/Users/lgg/Desktop/hithanbo/dave_ws/lgg_xmc/Libraries/XMCLib/inc\xmc_usic.h **** {
 253:C:/Users/lgg/Desktop/hithanbo/dave_ws/lgg_xmc/Libraries/XMCLib/inc\xmc_usic.h ****   XMC_USIC_CH_INTERRUPT_NODE_POINTER_TRANSMIT_SHIFT      = USIC_CH_INPR_TSINP_Pos, /**< Node pointe
 254:C:/Users/lgg/Desktop/hithanbo/dave_ws/lgg_xmc/Libraries/XMCLib/inc\xmc_usic.h ****   XMC_USIC_CH_INTERRUPT_NODE_POINTER_TRANSMIT_BUFFER     = USIC_CH_INPR_TBINP_Pos, /**< Node pointe
 255:C:/Users/lgg/Desktop/hithanbo/dave_ws/lgg_xmc/Libraries/XMCLib/inc\xmc_usic.h ****   XMC_USIC_CH_INTERRUPT_NODE_POINTER_RECEIVE             = USIC_CH_INPR_RINP_Pos,  /**< Node pointe
 256:C:/Users/lgg/Desktop/hithanbo/dave_ws/lgg_xmc/Libraries/XMCLib/inc\xmc_usic.h ****   XMC_USIC_CH_INTERRUPT_NODE_POINTER_ALTERNATE_RECEIVE   = USIC_CH_INPR_AINP_Pos,  /**< Node pointe
 257:C:/Users/lgg/Desktop/hithanbo/dave_ws/lgg_xmc/Libraries/XMCLib/inc\xmc_usic.h ****   XMC_USIC_CH_INTERRUPT_NODE_POINTER_PROTOCOL            = USIC_CH_INPR_PINP_Pos   /**< Node pointe
 258:C:/Users/lgg/Desktop/hithanbo/dave_ws/lgg_xmc/Libraries/XMCLib/inc\xmc_usic.h **** } XMC_USIC_CH_INTERRUPT_NODE_POINTER_t;
 259:C:/Users/lgg/Desktop/hithanbo/dave_ws/lgg_xmc/Libraries/XMCLib/inc\xmc_usic.h **** 
 260:C:/Users/lgg/Desktop/hithanbo/dave_ws/lgg_xmc/Libraries/XMCLib/inc\xmc_usic.h **** /**
 261:C:/Users/lgg/Desktop/hithanbo/dave_ws/lgg_xmc/Libraries/XMCLib/inc\xmc_usic.h ****  * USIC channel events
 262:C:/Users/lgg/Desktop/hithanbo/dave_ws/lgg_xmc/Libraries/XMCLib/inc\xmc_usic.h ****  */
 263:C:/Users/lgg/Desktop/hithanbo/dave_ws/lgg_xmc/Libraries/XMCLib/inc\xmc_usic.h **** typedef enum XMC_USIC_CH_EVENT
 264:C:/Users/lgg/Desktop/hithanbo/dave_ws/lgg_xmc/Libraries/XMCLib/inc\xmc_usic.h **** {
 265:C:/Users/lgg/Desktop/hithanbo/dave_ws/lgg_xmc/Libraries/XMCLib/inc\xmc_usic.h ****   XMC_USIC_CH_EVENT_RECEIVE_START       = USIC_CH_CCR_RSIEN_Msk, /**< Receive start event */
 266:C:/Users/lgg/Desktop/hithanbo/dave_ws/lgg_xmc/Libraries/XMCLib/inc\xmc_usic.h ****   XMC_USIC_CH_EVENT_DATA_LOST           = USIC_CH_CCR_DLIEN_Msk, /**< Data lost event */
 267:C:/Users/lgg/Desktop/hithanbo/dave_ws/lgg_xmc/Libraries/XMCLib/inc\xmc_usic.h ****   XMC_USIC_CH_EVENT_TRANSMIT_SHIFT      = USIC_CH_CCR_TSIEN_Msk, /**< Transmit shift event */
 268:C:/Users/lgg/Desktop/hithanbo/dave_ws/lgg_xmc/Libraries/XMCLib/inc\xmc_usic.h ****   XMC_USIC_CH_EVENT_TRANSMIT_BUFFER     = USIC_CH_CCR_TBIEN_Msk, /**< Transmit buffer event */
 269:C:/Users/lgg/Desktop/hithanbo/dave_ws/lgg_xmc/Libraries/XMCLib/inc\xmc_usic.h ****   XMC_USIC_CH_EVENT_STANDARD_RECEIVE    = USIC_CH_CCR_RIEN_Msk,  /**< Receive event */
 270:C:/Users/lgg/Desktop/hithanbo/dave_ws/lgg_xmc/Libraries/XMCLib/inc\xmc_usic.h ****   XMC_USIC_CH_EVENT_ALTERNATIVE_RECEIVE = USIC_CH_CCR_AIEN_Msk,  /**< Alternate receive event */
 271:C:/Users/lgg/Desktop/hithanbo/dave_ws/lgg_xmc/Libraries/XMCLib/inc\xmc_usic.h ****   XMC_USIC_CH_EVENT_BAUD_RATE_GENERATOR = USIC_CH_CCR_BRGIEN_Msk /**< Baudrate generator event */
 272:C:/Users/lgg/Desktop/hithanbo/dave_ws/lgg_xmc/Libraries/XMCLib/inc\xmc_usic.h **** } XMC_USIC_CH_EVENT_t;
 273:C:/Users/lgg/Desktop/hithanbo/dave_ws/lgg_xmc/Libraries/XMCLib/inc\xmc_usic.h **** 
 274:C:/Users/lgg/Desktop/hithanbo/dave_ws/lgg_xmc/Libraries/XMCLib/inc\xmc_usic.h **** /**
 275:C:/Users/lgg/Desktop/hithanbo/dave_ws/lgg_xmc/Libraries/XMCLib/inc\xmc_usic.h **** * USIC channel parity mode
 276:C:/Users/lgg/Desktop/hithanbo/dave_ws/lgg_xmc/Libraries/XMCLib/inc\xmc_usic.h **** */
 277:C:/Users/lgg/Desktop/hithanbo/dave_ws/lgg_xmc/Libraries/XMCLib/inc\xmc_usic.h **** typedef enum XMC_USIC_CH_PARITY_MODE
 278:C:/Users/lgg/Desktop/hithanbo/dave_ws/lgg_xmc/Libraries/XMCLib/inc\xmc_usic.h **** {
 279:C:/Users/lgg/Desktop/hithanbo/dave_ws/lgg_xmc/Libraries/XMCLib/inc\xmc_usic.h ****   XMC_USIC_CH_PARITY_MODE_NONE     = 0x0UL,  /**< Disable parity mode */
 280:C:/Users/lgg/Desktop/hithanbo/dave_ws/lgg_xmc/Libraries/XMCLib/inc\xmc_usic.h ****   XMC_USIC_CH_PARITY_MODE_EVEN     = 0x2UL << USIC_CH_CCR_PM_Pos,  /**< Enable even parity mode */
 281:C:/Users/lgg/Desktop/hithanbo/dave_ws/lgg_xmc/Libraries/XMCLib/inc\xmc_usic.h ****   XMC_USIC_CH_PARITY_MODE_ODD      = 0x3UL << USIC_CH_CCR_PM_Pos   /**< Enable odd parity mode */
 282:C:/Users/lgg/Desktop/hithanbo/dave_ws/lgg_xmc/Libraries/XMCLib/inc\xmc_usic.h **** } XMC_USIC_CH_PARITY_MODE_t;
 283:C:/Users/lgg/Desktop/hithanbo/dave_ws/lgg_xmc/Libraries/XMCLib/inc\xmc_usic.h **** 
 284:C:/Users/lgg/Desktop/hithanbo/dave_ws/lgg_xmc/Libraries/XMCLib/inc\xmc_usic.h **** /**
 285:C:/Users/lgg/Desktop/hithanbo/dave_ws/lgg_xmc/Libraries/XMCLib/inc\xmc_usic.h **** * USIC channel data output mode
 286:C:/Users/lgg/Desktop/hithanbo/dave_ws/lgg_xmc/Libraries/XMCLib/inc\xmc_usic.h **** */
 287:C:/Users/lgg/Desktop/hithanbo/dave_ws/lgg_xmc/Libraries/XMCLib/inc\xmc_usic.h **** typedef enum XMC_USIC_CH_DATA_OUTPUT_MODE
 288:C:/Users/lgg/Desktop/hithanbo/dave_ws/lgg_xmc/Libraries/XMCLib/inc\xmc_usic.h **** {
 289:C:/Users/lgg/Desktop/hithanbo/dave_ws/lgg_xmc/Libraries/XMCLib/inc\xmc_usic.h ****   XMC_USIC_CH_DATA_OUTPUT_MODE_NORMAL   = 0x0UL,  /**< Data output normal mode */
 290:C:/Users/lgg/Desktop/hithanbo/dave_ws/lgg_xmc/Libraries/XMCLib/inc\xmc_usic.h ****   XMC_USIC_CH_DATA_OUTPUT_MODE_INVERTED = 0x1UL << USIC_CH_SCTR_DOCFG_Pos   /**< Data output invert
 291:C:/Users/lgg/Desktop/hithanbo/dave_ws/lgg_xmc/Libraries/XMCLib/inc\xmc_usic.h **** } XMC_USIC_CH_DATA_OUTPUT_MODE_t;
 292:C:/Users/lgg/Desktop/hithanbo/dave_ws/lgg_xmc/Libraries/XMCLib/inc\xmc_usic.h **** 
 293:C:/Users/lgg/Desktop/hithanbo/dave_ws/lgg_xmc/Libraries/XMCLib/inc\xmc_usic.h **** /**
 294:C:/Users/lgg/Desktop/hithanbo/dave_ws/lgg_xmc/Libraries/XMCLib/inc\xmc_usic.h **** * USIC channel data transmit buffer status
 295:C:/Users/lgg/Desktop/hithanbo/dave_ws/lgg_xmc/Libraries/XMCLib/inc\xmc_usic.h **** */
 296:C:/Users/lgg/Desktop/hithanbo/dave_ws/lgg_xmc/Libraries/XMCLib/inc\xmc_usic.h **** typedef enum XMC_USIC_CH_TBUF_STATUS
 297:C:/Users/lgg/Desktop/hithanbo/dave_ws/lgg_xmc/Libraries/XMCLib/inc\xmc_usic.h **** {
 298:C:/Users/lgg/Desktop/hithanbo/dave_ws/lgg_xmc/Libraries/XMCLib/inc\xmc_usic.h ****   XMC_USIC_CH_TBUF_STATUS_IDLE = 0x0UL,                 /**< Transfer buffer is currently idle*/
 299:C:/Users/lgg/Desktop/hithanbo/dave_ws/lgg_xmc/Libraries/XMCLib/inc\xmc_usic.h ****   XMC_USIC_CH_TBUF_STATUS_BUSY = USIC_CH_TCSR_TDV_Msk   /**< Transfer buffer is currently busy*/
 300:C:/Users/lgg/Desktop/hithanbo/dave_ws/lgg_xmc/Libraries/XMCLib/inc\xmc_usic.h **** } XMC_USIC_CH_TBUF_STATUS_t;
 301:C:/Users/lgg/Desktop/hithanbo/dave_ws/lgg_xmc/Libraries/XMCLib/inc\xmc_usic.h **** 
 302:C:/Users/lgg/Desktop/hithanbo/dave_ws/lgg_xmc/Libraries/XMCLib/inc\xmc_usic.h **** 
 303:C:/Users/lgg/Desktop/hithanbo/dave_ws/lgg_xmc/Libraries/XMCLib/inc\xmc_usic.h **** 
 304:C:/Users/lgg/Desktop/hithanbo/dave_ws/lgg_xmc/Libraries/XMCLib/inc\xmc_usic.h **** /**
 305:C:/Users/lgg/Desktop/hithanbo/dave_ws/lgg_xmc/Libraries/XMCLib/inc\xmc_usic.h **** * USIC channel data transmit buffer status modification
 306:C:/Users/lgg/Desktop/hithanbo/dave_ws/lgg_xmc/Libraries/XMCLib/inc\xmc_usic.h **** */
 307:C:/Users/lgg/Desktop/hithanbo/dave_ws/lgg_xmc/Libraries/XMCLib/inc\xmc_usic.h **** typedef enum XMC_USIC_CH_TBUF_STATUS_SET
 308:C:/Users/lgg/Desktop/hithanbo/dave_ws/lgg_xmc/Libraries/XMCLib/inc\xmc_usic.h **** {
 309:C:/Users/lgg/Desktop/hithanbo/dave_ws/lgg_xmc/Libraries/XMCLib/inc\xmc_usic.h ****   XMC_USIC_CH_TBUF_STATUS_SET_BUSY   = 0x1UL, /**< Set Transfer buffer status to busy*/
 310:C:/Users/lgg/Desktop/hithanbo/dave_ws/lgg_xmc/Libraries/XMCLib/inc\xmc_usic.h ****   XMC_USIC_CH_TBUF_STATUS_SET_IDLE   = 0x2UL  /**< Set Transfer buffer status to idle*/
 311:C:/Users/lgg/Desktop/hithanbo/dave_ws/lgg_xmc/Libraries/XMCLib/inc\xmc_usic.h **** } XMC_USIC_CH_TBUF_STATUS_SET_t;
 312:C:/Users/lgg/Desktop/hithanbo/dave_ws/lgg_xmc/Libraries/XMCLib/inc\xmc_usic.h **** 
 313:C:/Users/lgg/Desktop/hithanbo/dave_ws/lgg_xmc/Libraries/XMCLib/inc\xmc_usic.h **** /**
 314:C:/Users/lgg/Desktop/hithanbo/dave_ws/lgg_xmc/Libraries/XMCLib/inc\xmc_usic.h **** * USIC channel receive buffer status
 315:C:/Users/lgg/Desktop/hithanbo/dave_ws/lgg_xmc/Libraries/XMCLib/inc\xmc_usic.h **** */
 316:C:/Users/lgg/Desktop/hithanbo/dave_ws/lgg_xmc/Libraries/XMCLib/inc\xmc_usic.h **** typedef enum XMC_USIC_CH_RBUF_STATUS
 317:C:/Users/lgg/Desktop/hithanbo/dave_ws/lgg_xmc/Libraries/XMCLib/inc\xmc_usic.h **** {
 318:C:/Users/lgg/Desktop/hithanbo/dave_ws/lgg_xmc/Libraries/XMCLib/inc\xmc_usic.h ****   XMC_USIC_CH_RBUF_STATUS_DATA_VALID0 = USIC_CH_RBUFSR_RDV0_Msk, /**< RBUF0 data has not yet been r
 319:C:/Users/lgg/Desktop/hithanbo/dave_ws/lgg_xmc/Libraries/XMCLib/inc\xmc_usic.h ****   XMC_USIC_CH_RBUF_STATUS_DATA_VALID1 = USIC_CH_RBUFSR_RDV1_Msk  /**< RBUF1 data has not yet been r
 320:C:/Users/lgg/Desktop/hithanbo/dave_ws/lgg_xmc/Libraries/XMCLib/inc\xmc_usic.h **** } XMC_USIC_CH_RBUF_STATUS_t;
 321:C:/Users/lgg/Desktop/hithanbo/dave_ws/lgg_xmc/Libraries/XMCLib/inc\xmc_usic.h **** 
 322:C:/Users/lgg/Desktop/hithanbo/dave_ws/lgg_xmc/Libraries/XMCLib/inc\xmc_usic.h **** /**
 323:C:/Users/lgg/Desktop/hithanbo/dave_ws/lgg_xmc/Libraries/XMCLib/inc\xmc_usic.h ****  * USIC channel output signal passive data level
 324:C:/Users/lgg/Desktop/hithanbo/dave_ws/lgg_xmc/Libraries/XMCLib/inc\xmc_usic.h **** */
 325:C:/Users/lgg/Desktop/hithanbo/dave_ws/lgg_xmc/Libraries/XMCLib/inc\xmc_usic.h **** typedef enum XMC_USCI_CH_PASSIVE_DATA_LEVEL
 326:C:/Users/lgg/Desktop/hithanbo/dave_ws/lgg_xmc/Libraries/XMCLib/inc\xmc_usic.h **** {
 327:C:/Users/lgg/Desktop/hithanbo/dave_ws/lgg_xmc/Libraries/XMCLib/inc\xmc_usic.h ****   XMC_USIC_CH_PASSIVE_DATA_LEVEL0 = 0x0UL, /**< Passive level(idle mode signal level) 0 */
 328:C:/Users/lgg/Desktop/hithanbo/dave_ws/lgg_xmc/Libraries/XMCLib/inc\xmc_usic.h ****   XMC_USIC_CH_PASSIVE_DATA_LEVEL1 = 0x1UL << USIC_CH_SCTR_PDL_Pos  /**< Passive level(idle mode sig
 329:C:/Users/lgg/Desktop/hithanbo/dave_ws/lgg_xmc/Libraries/XMCLib/inc\xmc_usic.h **** } XMC_USIC_CH_PASSIVE_DATA_LEVEL_t;
 330:C:/Users/lgg/Desktop/hithanbo/dave_ws/lgg_xmc/Libraries/XMCLib/inc\xmc_usic.h **** 
 331:C:/Users/lgg/Desktop/hithanbo/dave_ws/lgg_xmc/Libraries/XMCLib/inc\xmc_usic.h **** /**
 332:C:/Users/lgg/Desktop/hithanbo/dave_ws/lgg_xmc/Libraries/XMCLib/inc\xmc_usic.h **** * USIC channel receive FIFO size
 333:C:/Users/lgg/Desktop/hithanbo/dave_ws/lgg_xmc/Libraries/XMCLib/inc\xmc_usic.h **** */
 334:C:/Users/lgg/Desktop/hithanbo/dave_ws/lgg_xmc/Libraries/XMCLib/inc\xmc_usic.h **** typedef enum XMC_USIC_CH_FIFO_SIZE
 335:C:/Users/lgg/Desktop/hithanbo/dave_ws/lgg_xmc/Libraries/XMCLib/inc\xmc_usic.h **** {
 336:C:/Users/lgg/Desktop/hithanbo/dave_ws/lgg_xmc/Libraries/XMCLib/inc\xmc_usic.h ****   XMC_USIC_CH_FIFO_DISABLED     = 0x0U,  /**< FIFO Disabled */
 337:C:/Users/lgg/Desktop/hithanbo/dave_ws/lgg_xmc/Libraries/XMCLib/inc\xmc_usic.h ****   XMC_USIC_CH_FIFO_SIZE_2WORDS  = 0x1U,  /**< FIFO size: 2 words */
 338:C:/Users/lgg/Desktop/hithanbo/dave_ws/lgg_xmc/Libraries/XMCLib/inc\xmc_usic.h ****   XMC_USIC_CH_FIFO_SIZE_4WORDS  = 0x2U,  /**< FIFO size: 4 words */
 339:C:/Users/lgg/Desktop/hithanbo/dave_ws/lgg_xmc/Libraries/XMCLib/inc\xmc_usic.h ****   XMC_USIC_CH_FIFO_SIZE_8WORDS  = 0x3U,  /**< FIFO size: 8 words */
 340:C:/Users/lgg/Desktop/hithanbo/dave_ws/lgg_xmc/Libraries/XMCLib/inc\xmc_usic.h ****   XMC_USIC_CH_FIFO_SIZE_16WORDS = 0x4U,  /**< FIFO size: 16 words */
 341:C:/Users/lgg/Desktop/hithanbo/dave_ws/lgg_xmc/Libraries/XMCLib/inc\xmc_usic.h ****   XMC_USIC_CH_FIFO_SIZE_32WORDS = 0x5U,  /**< FIFO size: 32 words */
 342:C:/Users/lgg/Desktop/hithanbo/dave_ws/lgg_xmc/Libraries/XMCLib/inc\xmc_usic.h ****   XMC_USIC_CH_FIFO_SIZE_64WORDS = 0x6U   /**< FIFO size: 64 words */
 343:C:/Users/lgg/Desktop/hithanbo/dave_ws/lgg_xmc/Libraries/XMCLib/inc\xmc_usic.h **** } XMC_USIC_CH_FIFO_SIZE_t;
 344:C:/Users/lgg/Desktop/hithanbo/dave_ws/lgg_xmc/Libraries/XMCLib/inc\xmc_usic.h **** 
 345:C:/Users/lgg/Desktop/hithanbo/dave_ws/lgg_xmc/Libraries/XMCLib/inc\xmc_usic.h **** /**
 346:C:/Users/lgg/Desktop/hithanbo/dave_ws/lgg_xmc/Libraries/XMCLib/inc\xmc_usic.h **** * USIC channel transmit FIFO interrupt node pointers
 347:C:/Users/lgg/Desktop/hithanbo/dave_ws/lgg_xmc/Libraries/XMCLib/inc\xmc_usic.h **** */
 348:C:/Users/lgg/Desktop/hithanbo/dave_ws/lgg_xmc/Libraries/XMCLib/inc\xmc_usic.h **** typedef enum XMC_USIC_CH_TXFIFO_INTERRUPT_NODE_POINTER
 349:C:/Users/lgg/Desktop/hithanbo/dave_ws/lgg_xmc/Libraries/XMCLib/inc\xmc_usic.h **** {
 350:C:/Users/lgg/Desktop/hithanbo/dave_ws/lgg_xmc/Libraries/XMCLib/inc\xmc_usic.h ****   XMC_USIC_CH_TXFIFO_INTERRUPT_NODE_POINTER_STANDARD  = USIC_CH_TBCTR_STBINP_Pos,  /**< Node pointe
 351:C:/Users/lgg/Desktop/hithanbo/dave_ws/lgg_xmc/Libraries/XMCLib/inc\xmc_usic.h ****   XMC_USIC_CH_TXFIFO_INTERRUPT_NODE_POINTER_ALTERNATE = USIC_CH_TBCTR_ATBINP_Pos   /**< Node pointe
 352:C:/Users/lgg/Desktop/hithanbo/dave_ws/lgg_xmc/Libraries/XMCLib/inc\xmc_usic.h **** } XMC_USIC_CH_TXFIFO_INTERRUPT_NODE_POINTER_t;
 353:C:/Users/lgg/Desktop/hithanbo/dave_ws/lgg_xmc/Libraries/XMCLib/inc\xmc_usic.h **** 
 354:C:/Users/lgg/Desktop/hithanbo/dave_ws/lgg_xmc/Libraries/XMCLib/inc\xmc_usic.h **** /**
 355:C:/Users/lgg/Desktop/hithanbo/dave_ws/lgg_xmc/Libraries/XMCLib/inc\xmc_usic.h **** * USIC channel transmit FIFO event configuration
 356:C:/Users/lgg/Desktop/hithanbo/dave_ws/lgg_xmc/Libraries/XMCLib/inc\xmc_usic.h **** */
 357:C:/Users/lgg/Desktop/hithanbo/dave_ws/lgg_xmc/Libraries/XMCLib/inc\xmc_usic.h **** typedef enum XMC_USIC_CH_TXFIFO_EVENT_CONF
 358:C:/Users/lgg/Desktop/hithanbo/dave_ws/lgg_xmc/Libraries/XMCLib/inc\xmc_usic.h **** {
 359:C:/Users/lgg/Desktop/hithanbo/dave_ws/lgg_xmc/Libraries/XMCLib/inc\xmc_usic.h ****   XMC_USIC_CH_TXFIFO_EVENT_CONF_STANDARD  = USIC_CH_TBCTR_STBIEN_Msk,   /**< Enable FIFO standard t
 360:C:/Users/lgg/Desktop/hithanbo/dave_ws/lgg_xmc/Libraries/XMCLib/inc\xmc_usic.h ****   XMC_USIC_CH_TXFIFO_EVENT_CONF_ERROR     = (int32_t)USIC_CH_TBCTR_TBERIEN_Msk  /**< Enable transmi
 361:C:/Users/lgg/Desktop/hithanbo/dave_ws/lgg_xmc/Libraries/XMCLib/inc\xmc_usic.h **** } XMC_USIC_CH_TXFIFO_EVENT_CONF_t;
 362:C:/Users/lgg/Desktop/hithanbo/dave_ws/lgg_xmc/Libraries/XMCLib/inc\xmc_usic.h **** 
 363:C:/Users/lgg/Desktop/hithanbo/dave_ws/lgg_xmc/Libraries/XMCLib/inc\xmc_usic.h **** /**
 364:C:/Users/lgg/Desktop/hithanbo/dave_ws/lgg_xmc/Libraries/XMCLib/inc\xmc_usic.h **** * USIC channel transmit FIFO status
 365:C:/Users/lgg/Desktop/hithanbo/dave_ws/lgg_xmc/Libraries/XMCLib/inc\xmc_usic.h **** */
 366:C:/Users/lgg/Desktop/hithanbo/dave_ws/lgg_xmc/Libraries/XMCLib/inc\xmc_usic.h **** typedef enum XMC_USIC_CH_TXFIFO_EVENT
 367:C:/Users/lgg/Desktop/hithanbo/dave_ws/lgg_xmc/Libraries/XMCLib/inc\xmc_usic.h **** {
 368:C:/Users/lgg/Desktop/hithanbo/dave_ws/lgg_xmc/Libraries/XMCLib/inc\xmc_usic.h ****   XMC_USIC_CH_TXFIFO_EVENT_STANDARD = USIC_CH_TRBSR_STBI_Msk,    /**< Transmit FIFO status: Standar
 369:C:/Users/lgg/Desktop/hithanbo/dave_ws/lgg_xmc/Libraries/XMCLib/inc\xmc_usic.h ****   XMC_USIC_CH_TXFIFO_EVENT_ERROR    = USIC_CH_TRBSR_TBERI_Msk    /**< Transmit FIFO status: Error e
 370:C:/Users/lgg/Desktop/hithanbo/dave_ws/lgg_xmc/Libraries/XMCLib/inc\xmc_usic.h **** } XMC_USIC_CH_TXFIFO_EVENT_t;
 371:C:/Users/lgg/Desktop/hithanbo/dave_ws/lgg_xmc/Libraries/XMCLib/inc\xmc_usic.h **** 
 372:C:/Users/lgg/Desktop/hithanbo/dave_ws/lgg_xmc/Libraries/XMCLib/inc\xmc_usic.h **** /**
 373:C:/Users/lgg/Desktop/hithanbo/dave_ws/lgg_xmc/Libraries/XMCLib/inc\xmc_usic.h **** * USIC channel receive FIFO interrupt node pointers
 374:C:/Users/lgg/Desktop/hithanbo/dave_ws/lgg_xmc/Libraries/XMCLib/inc\xmc_usic.h **** */
 375:C:/Users/lgg/Desktop/hithanbo/dave_ws/lgg_xmc/Libraries/XMCLib/inc\xmc_usic.h **** typedef enum XMC_USIC_CH_RXFIFO_INTERRUPT_NODE_POINTER
 376:C:/Users/lgg/Desktop/hithanbo/dave_ws/lgg_xmc/Libraries/XMCLib/inc\xmc_usic.h **** {
 377:C:/Users/lgg/Desktop/hithanbo/dave_ws/lgg_xmc/Libraries/XMCLib/inc\xmc_usic.h ****   XMC_USIC_CH_RXFIFO_INTERRUPT_NODE_POINTER_STANDARD  = USIC_CH_RBCTR_SRBINP_Pos, /**< Node pointer
 378:C:/Users/lgg/Desktop/hithanbo/dave_ws/lgg_xmc/Libraries/XMCLib/inc\xmc_usic.h ****   XMC_USIC_CH_RXFIFO_INTERRUPT_NODE_POINTER_ALTERNATE = USIC_CH_RBCTR_ARBINP_Pos  /**< Node pointer
 379:C:/Users/lgg/Desktop/hithanbo/dave_ws/lgg_xmc/Libraries/XMCLib/inc\xmc_usic.h **** } XMC_USIC_CH_RXFIFO_INTERRUPT_NODE_POINTER_t;
 380:C:/Users/lgg/Desktop/hithanbo/dave_ws/lgg_xmc/Libraries/XMCLib/inc\xmc_usic.h **** 
 381:C:/Users/lgg/Desktop/hithanbo/dave_ws/lgg_xmc/Libraries/XMCLib/inc\xmc_usic.h **** /**
 382:C:/Users/lgg/Desktop/hithanbo/dave_ws/lgg_xmc/Libraries/XMCLib/inc\xmc_usic.h **** * USIC channel receive FIFO event configuration
 383:C:/Users/lgg/Desktop/hithanbo/dave_ws/lgg_xmc/Libraries/XMCLib/inc\xmc_usic.h **** */
 384:C:/Users/lgg/Desktop/hithanbo/dave_ws/lgg_xmc/Libraries/XMCLib/inc\xmc_usic.h **** typedef enum XMC_USIC_CH_RXFIFO_EVENT_CONF
 385:C:/Users/lgg/Desktop/hithanbo/dave_ws/lgg_xmc/Libraries/XMCLib/inc\xmc_usic.h **** {
 386:C:/Users/lgg/Desktop/hithanbo/dave_ws/lgg_xmc/Libraries/XMCLib/inc\xmc_usic.h ****   XMC_USIC_CH_RXFIFO_EVENT_CONF_STANDARD  = USIC_CH_RBCTR_SRBIEN_Msk,   /**< Enable FIFO standard r
 387:C:/Users/lgg/Desktop/hithanbo/dave_ws/lgg_xmc/Libraries/XMCLib/inc\xmc_usic.h ****   XMC_USIC_CH_RXFIFO_EVENT_CONF_ERROR     = (int32_t)USIC_CH_RBCTR_RBERIEN_Msk,  /**< Enable receiv
 388:C:/Users/lgg/Desktop/hithanbo/dave_ws/lgg_xmc/Libraries/XMCLib/inc\xmc_usic.h ****   XMC_USIC_CH_RXFIFO_EVENT_CONF_ALTERNATE = USIC_CH_RBCTR_ARBIEN_Msk   /**< Enable FIFO alternative
 389:C:/Users/lgg/Desktop/hithanbo/dave_ws/lgg_xmc/Libraries/XMCLib/inc\xmc_usic.h **** } XMC_USIC_CH_RXFIFO_EVENT_CONF_t;
 390:C:/Users/lgg/Desktop/hithanbo/dave_ws/lgg_xmc/Libraries/XMCLib/inc\xmc_usic.h **** 
 391:C:/Users/lgg/Desktop/hithanbo/dave_ws/lgg_xmc/Libraries/XMCLib/inc\xmc_usic.h **** /**
 392:C:/Users/lgg/Desktop/hithanbo/dave_ws/lgg_xmc/Libraries/XMCLib/inc\xmc_usic.h **** * USIC channel receive FIFO status
 393:C:/Users/lgg/Desktop/hithanbo/dave_ws/lgg_xmc/Libraries/XMCLib/inc\xmc_usic.h **** */
 394:C:/Users/lgg/Desktop/hithanbo/dave_ws/lgg_xmc/Libraries/XMCLib/inc\xmc_usic.h **** typedef enum XMC_USIC_CH_RXFIFO_EVENT
 395:C:/Users/lgg/Desktop/hithanbo/dave_ws/lgg_xmc/Libraries/XMCLib/inc\xmc_usic.h **** {
 396:C:/Users/lgg/Desktop/hithanbo/dave_ws/lgg_xmc/Libraries/XMCLib/inc\xmc_usic.h ****   XMC_USIC_CH_RXFIFO_EVENT_STANDARD  = USIC_CH_TRBSR_SRBI_Msk,   /**< Receive FIFO status: Standard
 397:C:/Users/lgg/Desktop/hithanbo/dave_ws/lgg_xmc/Libraries/XMCLib/inc\xmc_usic.h ****   XMC_USIC_CH_RXFIFO_EVENT_ERROR     = USIC_CH_TRBSR_RBERI_Msk,  /**< Receive FIFO status: Error ev
 398:C:/Users/lgg/Desktop/hithanbo/dave_ws/lgg_xmc/Libraries/XMCLib/inc\xmc_usic.h ****   XMC_USIC_CH_RXFIFO_EVENT_ALTERNATE = USIC_CH_TRBSR_ARBI_Msk    /**< Receive FIFO status: Alternat
 399:C:/Users/lgg/Desktop/hithanbo/dave_ws/lgg_xmc/Libraries/XMCLib/inc\xmc_usic.h **** } XMC_USIC_CH_RXFIFO_EVENT_t;
 400:C:/Users/lgg/Desktop/hithanbo/dave_ws/lgg_xmc/Libraries/XMCLib/inc\xmc_usic.h **** 
 401:C:/Users/lgg/Desktop/hithanbo/dave_ws/lgg_xmc/Libraries/XMCLib/inc\xmc_usic.h **** /**
 402:C:/Users/lgg/Desktop/hithanbo/dave_ws/lgg_xmc/Libraries/XMCLib/inc\xmc_usic.h **** * USIC channel baudrate generator clock source
 403:C:/Users/lgg/Desktop/hithanbo/dave_ws/lgg_xmc/Libraries/XMCLib/inc\xmc_usic.h **** */
 404:C:/Users/lgg/Desktop/hithanbo/dave_ws/lgg_xmc/Libraries/XMCLib/inc\xmc_usic.h **** typedef enum XMC_USIC_CH_BRG_CLOCK_SOURCE
 405:C:/Users/lgg/Desktop/hithanbo/dave_ws/lgg_xmc/Libraries/XMCLib/inc\xmc_usic.h **** {
 406:C:/Users/lgg/Desktop/hithanbo/dave_ws/lgg_xmc/Libraries/XMCLib/inc\xmc_usic.h ****   XMC_USIC_CH_BRG_CLOCK_SOURCE_DIVIDER = 0x0UL, /**< Baudrate generator clock source : Source divid
 407:C:/Users/lgg/Desktop/hithanbo/dave_ws/lgg_xmc/Libraries/XMCLib/inc\xmc_usic.h ****   XMC_USIC_CH_BRG_CLOCK_SOURCE_DX1T    = 0x2UL << USIC_CH_BRG_CLKSEL_Pos  /**< Baudrate generator c
 408:C:/Users/lgg/Desktop/hithanbo/dave_ws/lgg_xmc/Libraries/XMCLib/inc\xmc_usic.h **** } XMC_USIC_CH_BRG_CLOCK_SOURCE_t;
 409:C:/Users/lgg/Desktop/hithanbo/dave_ws/lgg_xmc/Libraries/XMCLib/inc\xmc_usic.h **** 
 410:C:/Users/lgg/Desktop/hithanbo/dave_ws/lgg_xmc/Libraries/XMCLib/inc\xmc_usic.h **** /**
 411:C:/Users/lgg/Desktop/hithanbo/dave_ws/lgg_xmc/Libraries/XMCLib/inc\xmc_usic.h **** * USIC channel baudrate generator divider mode
 412:C:/Users/lgg/Desktop/hithanbo/dave_ws/lgg_xmc/Libraries/XMCLib/inc\xmc_usic.h **** */
 413:C:/Users/lgg/Desktop/hithanbo/dave_ws/lgg_xmc/Libraries/XMCLib/inc\xmc_usic.h **** typedef enum XMC_USIC_CH_BRG_CLOCK_DIVIDER_MODE
 414:C:/Users/lgg/Desktop/hithanbo/dave_ws/lgg_xmc/Libraries/XMCLib/inc\xmc_usic.h **** {
 415:C:/Users/lgg/Desktop/hithanbo/dave_ws/lgg_xmc/Libraries/XMCLib/inc\xmc_usic.h ****   XMC_USIC_CH_BRG_CLOCK_DIVIDER_MODE_DISABLED   = 0x0UL, /**< Baudrate generator clock divider: Dis
 416:C:/Users/lgg/Desktop/hithanbo/dave_ws/lgg_xmc/Libraries/XMCLib/inc\xmc_usic.h ****   XMC_USIC_CH_BRG_CLOCK_DIVIDER_MODE_NORMAL     = 0x1UL << USIC_CH_FDR_DM_Pos, /**< Baudrate genera
 417:C:/Users/lgg/Desktop/hithanbo/dave_ws/lgg_xmc/Libraries/XMCLib/inc\xmc_usic.h ****   XMC_USIC_CH_BRG_CLOCK_DIVIDER_MODE_FRACTIONAL = 0x2UL << USIC_CH_FDR_DM_Pos  /**< Baudrate genera
 418:C:/Users/lgg/Desktop/hithanbo/dave_ws/lgg_xmc/Libraries/XMCLib/inc\xmc_usic.h **** } XMC_USIC_CH_BRG_CLOCK_DIVIDER_MODE_t;
 419:C:/Users/lgg/Desktop/hithanbo/dave_ws/lgg_xmc/Libraries/XMCLib/inc\xmc_usic.h **** 
 420:C:/Users/lgg/Desktop/hithanbo/dave_ws/lgg_xmc/Libraries/XMCLib/inc\xmc_usic.h **** /**
 421:C:/Users/lgg/Desktop/hithanbo/dave_ws/lgg_xmc/Libraries/XMCLib/inc\xmc_usic.h **** * USIC channel baudrate generator master clock passive level
 422:C:/Users/lgg/Desktop/hithanbo/dave_ws/lgg_xmc/Libraries/XMCLib/inc\xmc_usic.h **** */
 423:C:/Users/lgg/Desktop/hithanbo/dave_ws/lgg_xmc/Libraries/XMCLib/inc\xmc_usic.h **** typedef enum XMC_USIC_CH_BRG_MASTER_CLOCK_PASSIVE_LEVEL
 424:C:/Users/lgg/Desktop/hithanbo/dave_ws/lgg_xmc/Libraries/XMCLib/inc\xmc_usic.h **** {
 425:C:/Users/lgg/Desktop/hithanbo/dave_ws/lgg_xmc/Libraries/XMCLib/inc\xmc_usic.h ****   XMC_USIC_CH_BRG_MASTER_CLOCK_PASSIVE_LEVEL_0 = 0x0UL, /**< Baudrate generator master clock passiv
 426:C:/Users/lgg/Desktop/hithanbo/dave_ws/lgg_xmc/Libraries/XMCLib/inc\xmc_usic.h ****   XMC_USIC_CH_BRG_MASTER_CLOCK_PASSIVE_LEVEL_1 = 0x1UL << USIC_CH_BRG_MCLKCFG_Pos  /**< Baudrate ge
 427:C:/Users/lgg/Desktop/hithanbo/dave_ws/lgg_xmc/Libraries/XMCLib/inc\xmc_usic.h **** } XMC_USIC_CH_BRG_MASTER_CLOCK_PASSIVE_LEVEL_t;
 428:C:/Users/lgg/Desktop/hithanbo/dave_ws/lgg_xmc/Libraries/XMCLib/inc\xmc_usic.h **** 
 429:C:/Users/lgg/Desktop/hithanbo/dave_ws/lgg_xmc/Libraries/XMCLib/inc\xmc_usic.h **** /**
 430:C:/Users/lgg/Desktop/hithanbo/dave_ws/lgg_xmc/Libraries/XMCLib/inc\xmc_usic.h **** * USIC channel baudrate generator shift clock passive level
 431:C:/Users/lgg/Desktop/hithanbo/dave_ws/lgg_xmc/Libraries/XMCLib/inc\xmc_usic.h **** */
 432:C:/Users/lgg/Desktop/hithanbo/dave_ws/lgg_xmc/Libraries/XMCLib/inc\xmc_usic.h **** typedef enum XMC_USIC_CH_BRG_SHIFT_CLOCK_PASSIVE_LEVEL
 433:C:/Users/lgg/Desktop/hithanbo/dave_ws/lgg_xmc/Libraries/XMCLib/inc\xmc_usic.h **** {
 434:C:/Users/lgg/Desktop/hithanbo/dave_ws/lgg_xmc/Libraries/XMCLib/inc\xmc_usic.h ****   XMC_USIC_CH_BRG_SHIFT_CLOCK_PASSIVE_LEVEL_0_DELAY_DISABLED = 0x0UL, /**< Shift clock passive leve
 435:C:/Users/lgg/Desktop/hithanbo/dave_ws/lgg_xmc/Libraries/XMCLib/inc\xmc_usic.h ****   XMC_USIC_CH_BRG_SHIFT_CLOCK_PASSIVE_LEVEL_1_DELAY_DISABLED = 0x1UL << USIC_CH_BRG_SCLKCFG_Pos, /*
 436:C:/Users/lgg/Desktop/hithanbo/dave_ws/lgg_xmc/Libraries/XMCLib/inc\xmc_usic.h ****   XMC_USIC_CH_BRG_SHIFT_CLOCK_PASSIVE_LEVEL_0_DELAY_ENABLED  = (int32_t)(0x2UL << USIC_CH_BRG_SCLKC
 437:C:/Users/lgg/Desktop/hithanbo/dave_ws/lgg_xmc/Libraries/XMCLib/inc\xmc_usic.h ****   XMC_USIC_CH_BRG_SHIFT_CLOCK_PASSIVE_LEVEL_1_DELAY_ENABLED  = (int32_t)(0x3UL << USIC_CH_BRG_SCLKC
 438:C:/Users/lgg/Desktop/hithanbo/dave_ws/lgg_xmc/Libraries/XMCLib/inc\xmc_usic.h **** } XMC_USIC_CH_BRG_SHIFT_CLOCK_PASSIVE_LEVEL_t;
 439:C:/Users/lgg/Desktop/hithanbo/dave_ws/lgg_xmc/Libraries/XMCLib/inc\xmc_usic.h **** 
 440:C:/Users/lgg/Desktop/hithanbo/dave_ws/lgg_xmc/Libraries/XMCLib/inc\xmc_usic.h **** /**
 441:C:/Users/lgg/Desktop/hithanbo/dave_ws/lgg_xmc/Libraries/XMCLib/inc\xmc_usic.h **** * USIC channel baudrate generator shift clock output
 442:C:/Users/lgg/Desktop/hithanbo/dave_ws/lgg_xmc/Libraries/XMCLib/inc\xmc_usic.h **** */
 443:C:/Users/lgg/Desktop/hithanbo/dave_ws/lgg_xmc/Libraries/XMCLib/inc\xmc_usic.h **** typedef enum XMC_USIC_CH_BRG_SHIFT_CLOCK_OUTPUT
 444:C:/Users/lgg/Desktop/hithanbo/dave_ws/lgg_xmc/Libraries/XMCLib/inc\xmc_usic.h **** {
 445:C:/Users/lgg/Desktop/hithanbo/dave_ws/lgg_xmc/Libraries/XMCLib/inc\xmc_usic.h ****   XMC_USIC_CH_BRG_SHIFT_CLOCK_OUTPUT_SCLK = 0x0UL, /**< Baudrate generator shift clock output: SCL.
 446:C:/Users/lgg/Desktop/hithanbo/dave_ws/lgg_xmc/Libraries/XMCLib/inc\xmc_usic.h ****   XMC_USIC_CH_BRG_SHIFT_CLOCK_OUTPUT_DX1 = 0x1UL << USIC_CH_BRG_SCLKOSEL_Pos   /**< Baudrate genera
 447:C:/Users/lgg/Desktop/hithanbo/dave_ws/lgg_xmc/Libraries/XMCLib/inc\xmc_usic.h **** } XMC_USIC_CH_BRG_SHIFT_CLOCK_OUTPUT_t;
 448:C:/Users/lgg/Desktop/hithanbo/dave_ws/lgg_xmc/Libraries/XMCLib/inc\xmc_usic.h **** 
 449:C:/Users/lgg/Desktop/hithanbo/dave_ws/lgg_xmc/Libraries/XMCLib/inc\xmc_usic.h **** /**
 450:C:/Users/lgg/Desktop/hithanbo/dave_ws/lgg_xmc/Libraries/XMCLib/inc\xmc_usic.h **** * USIC channel shift direction.
 451:C:/Users/lgg/Desktop/hithanbo/dave_ws/lgg_xmc/Libraries/XMCLib/inc\xmc_usic.h **** * Defines the shift direction of the data words for transmission and reception
 452:C:/Users/lgg/Desktop/hithanbo/dave_ws/lgg_xmc/Libraries/XMCLib/inc\xmc_usic.h **** */
 453:C:/Users/lgg/Desktop/hithanbo/dave_ws/lgg_xmc/Libraries/XMCLib/inc\xmc_usic.h **** typedef enum XMC_USIC_CH_SHIFT_DIRECTION
 454:C:/Users/lgg/Desktop/hithanbo/dave_ws/lgg_xmc/Libraries/XMCLib/inc\xmc_usic.h **** {
 455:C:/Users/lgg/Desktop/hithanbo/dave_ws/lgg_xmc/Libraries/XMCLib/inc\xmc_usic.h ****   XMC_USIC_CH_SHIFT_DIRECTION_LSB_FIRST = 0x0UL, /**< Shift LSB first. The first data bit of a data
 456:C:/Users/lgg/Desktop/hithanbo/dave_ws/lgg_xmc/Libraries/XMCLib/inc\xmc_usic.h ****   XMC_USIC_CH_SHIFT_DIRECTION_MSB_FIRST = 0x1UL << USIC_CH_SCTR_SDIR_Pos /**< Shift MSB first. The 
 457:C:/Users/lgg/Desktop/hithanbo/dave_ws/lgg_xmc/Libraries/XMCLib/inc\xmc_usic.h **** } XMC_USIC_CH_SHIFT_DIRECTION_t;
 458:C:/Users/lgg/Desktop/hithanbo/dave_ws/lgg_xmc/Libraries/XMCLib/inc\xmc_usic.h **** 
 459:C:/Users/lgg/Desktop/hithanbo/dave_ws/lgg_xmc/Libraries/XMCLib/inc\xmc_usic.h **** 
 460:C:/Users/lgg/Desktop/hithanbo/dave_ws/lgg_xmc/Libraries/XMCLib/inc\xmc_usic.h **** /*******************************************************************************
 461:C:/Users/lgg/Desktop/hithanbo/dave_ws/lgg_xmc/Libraries/XMCLib/inc\xmc_usic.h ****  * DATA STRUCTURES
 462:C:/Users/lgg/Desktop/hithanbo/dave_ws/lgg_xmc/Libraries/XMCLib/inc\xmc_usic.h ****  *******************************************************************************/
 463:C:/Users/lgg/Desktop/hithanbo/dave_ws/lgg_xmc/Libraries/XMCLib/inc\xmc_usic.h **** 
 464:C:/Users/lgg/Desktop/hithanbo/dave_ws/lgg_xmc/Libraries/XMCLib/inc\xmc_usic.h **** /*Anonymous structure/union guard start*/
 465:C:/Users/lgg/Desktop/hithanbo/dave_ws/lgg_xmc/Libraries/XMCLib/inc\xmc_usic.h **** #if defined(__CC_ARM)
 466:C:/Users/lgg/Desktop/hithanbo/dave_ws/lgg_xmc/Libraries/XMCLib/inc\xmc_usic.h ****   #pragma push
 467:C:/Users/lgg/Desktop/hithanbo/dave_ws/lgg_xmc/Libraries/XMCLib/inc\xmc_usic.h ****   #pragma anon_unions
 468:C:/Users/lgg/Desktop/hithanbo/dave_ws/lgg_xmc/Libraries/XMCLib/inc\xmc_usic.h **** #elif defined(__TASKING__)
 469:C:/Users/lgg/Desktop/hithanbo/dave_ws/lgg_xmc/Libraries/XMCLib/inc\xmc_usic.h ****   #pragma warning 586
 470:C:/Users/lgg/Desktop/hithanbo/dave_ws/lgg_xmc/Libraries/XMCLib/inc\xmc_usic.h **** #endif
 471:C:/Users/lgg/Desktop/hithanbo/dave_ws/lgg_xmc/Libraries/XMCLib/inc\xmc_usic.h **** 
 472:C:/Users/lgg/Desktop/hithanbo/dave_ws/lgg_xmc/Libraries/XMCLib/inc\xmc_usic.h **** /**
 473:C:/Users/lgg/Desktop/hithanbo/dave_ws/lgg_xmc/Libraries/XMCLib/inc\xmc_usic.h ****  * USIC module structure
 474:C:/Users/lgg/Desktop/hithanbo/dave_ws/lgg_xmc/Libraries/XMCLib/inc\xmc_usic.h ****  */
 475:C:/Users/lgg/Desktop/hithanbo/dave_ws/lgg_xmc/Libraries/XMCLib/inc\xmc_usic.h **** typedef USIC_GLOBAL_TypeDef XMC_USIC_t;
 476:C:/Users/lgg/Desktop/hithanbo/dave_ws/lgg_xmc/Libraries/XMCLib/inc\xmc_usic.h **** 
 477:C:/Users/lgg/Desktop/hithanbo/dave_ws/lgg_xmc/Libraries/XMCLib/inc\xmc_usic.h **** /**
 478:C:/Users/lgg/Desktop/hithanbo/dave_ws/lgg_xmc/Libraries/XMCLib/inc\xmc_usic.h ****  * USIC channel structure.<br> The members of the structure are same as in the device header file, 
 479:C:/Users/lgg/Desktop/hithanbo/dave_ws/lgg_xmc/Libraries/XMCLib/inc\xmc_usic.h ****  * except for some registers.
 480:C:/Users/lgg/Desktop/hithanbo/dave_ws/lgg_xmc/Libraries/XMCLib/inc\xmc_usic.h ****  * DX0CR, DX1CR, DX2CR, DX3CR, DX4CR and DX5CR are replaced with the array DXCR[6].
 481:C:/Users/lgg/Desktop/hithanbo/dave_ws/lgg_xmc/Libraries/XMCLib/inc\xmc_usic.h ****  * TBUF0 to TBUF31 are replaced with TBUF[32].
 482:C:/Users/lgg/Desktop/hithanbo/dave_ws/lgg_xmc/Libraries/XMCLib/inc\xmc_usic.h ****  * IN0 to IN31 are replaced with IN[32].
 483:C:/Users/lgg/Desktop/hithanbo/dave_ws/lgg_xmc/Libraries/XMCLib/inc\xmc_usic.h ****  */
 484:C:/Users/lgg/Desktop/hithanbo/dave_ws/lgg_xmc/Libraries/XMCLib/inc\xmc_usic.h **** typedef struct XMC_USIC_CH
 485:C:/Users/lgg/Desktop/hithanbo/dave_ws/lgg_xmc/Libraries/XMCLib/inc\xmc_usic.h **** {
 486:C:/Users/lgg/Desktop/hithanbo/dave_ws/lgg_xmc/Libraries/XMCLib/inc\xmc_usic.h ****   __I  uint32_t  RESERVED0;
 487:C:/Users/lgg/Desktop/hithanbo/dave_ws/lgg_xmc/Libraries/XMCLib/inc\xmc_usic.h ****   __I  uint32_t  CCFG;			/**< Channel configuration register*/
 488:C:/Users/lgg/Desktop/hithanbo/dave_ws/lgg_xmc/Libraries/XMCLib/inc\xmc_usic.h ****   __I  uint32_t  RESERVED1;
 489:C:/Users/lgg/Desktop/hithanbo/dave_ws/lgg_xmc/Libraries/XMCLib/inc\xmc_usic.h ****   __IO uint32_t  KSCFG;			/**< Kernel state configuration register*/
 490:C:/Users/lgg/Desktop/hithanbo/dave_ws/lgg_xmc/Libraries/XMCLib/inc\xmc_usic.h ****   __IO uint32_t  FDR;			/**< Fractional divider configuration register*/
 491:C:/Users/lgg/Desktop/hithanbo/dave_ws/lgg_xmc/Libraries/XMCLib/inc\xmc_usic.h ****   __IO uint32_t  BRG;			/**< Baud rate generator register*/
 492:C:/Users/lgg/Desktop/hithanbo/dave_ws/lgg_xmc/Libraries/XMCLib/inc\xmc_usic.h ****   __IO uint32_t  INPR;			/**< Interrupt node pointer register*/
 493:C:/Users/lgg/Desktop/hithanbo/dave_ws/lgg_xmc/Libraries/XMCLib/inc\xmc_usic.h ****   __IO uint32_t  DXCR[6];		/**< Input control registers DX0 to DX5.*/
 494:C:/Users/lgg/Desktop/hithanbo/dave_ws/lgg_xmc/Libraries/XMCLib/inc\xmc_usic.h ****   __IO uint32_t  SCTR;			/**< Shift control register*/
 495:C:/Users/lgg/Desktop/hithanbo/dave_ws/lgg_xmc/Libraries/XMCLib/inc\xmc_usic.h ****   __IO uint32_t  TCSR;
 496:C:/Users/lgg/Desktop/hithanbo/dave_ws/lgg_xmc/Libraries/XMCLib/inc\xmc_usic.h **** 
 497:C:/Users/lgg/Desktop/hithanbo/dave_ws/lgg_xmc/Libraries/XMCLib/inc\xmc_usic.h ****   union {
 498:C:/Users/lgg/Desktop/hithanbo/dave_ws/lgg_xmc/Libraries/XMCLib/inc\xmc_usic.h ****     __IO uint32_t  PCR_IICMode;	/**< I2C protocol configuration register*/
 499:C:/Users/lgg/Desktop/hithanbo/dave_ws/lgg_xmc/Libraries/XMCLib/inc\xmc_usic.h ****     __IO uint32_t  PCR_IISMode; /**< I2S protocol configuration register*/
 500:C:/Users/lgg/Desktop/hithanbo/dave_ws/lgg_xmc/Libraries/XMCLib/inc\xmc_usic.h ****     __IO uint32_t  PCR_SSCMode;	/**< SPI protocol configuration register*/
 501:C:/Users/lgg/Desktop/hithanbo/dave_ws/lgg_xmc/Libraries/XMCLib/inc\xmc_usic.h ****     __IO uint32_t  PCR;			/**< Protocol configuration register*/
 502:C:/Users/lgg/Desktop/hithanbo/dave_ws/lgg_xmc/Libraries/XMCLib/inc\xmc_usic.h ****     __IO uint32_t  PCR_ASCMode;	/**< UART protocol configuration register*/
 503:C:/Users/lgg/Desktop/hithanbo/dave_ws/lgg_xmc/Libraries/XMCLib/inc\xmc_usic.h ****   };
 504:C:/Users/lgg/Desktop/hithanbo/dave_ws/lgg_xmc/Libraries/XMCLib/inc\xmc_usic.h ****   __IO uint32_t  CCR;			/**< Channel control register*/
 505:C:/Users/lgg/Desktop/hithanbo/dave_ws/lgg_xmc/Libraries/XMCLib/inc\xmc_usic.h ****   __IO uint32_t  CMTR;			/**< Capture mode timer register*/
 506:C:/Users/lgg/Desktop/hithanbo/dave_ws/lgg_xmc/Libraries/XMCLib/inc\xmc_usic.h **** 
 507:C:/Users/lgg/Desktop/hithanbo/dave_ws/lgg_xmc/Libraries/XMCLib/inc\xmc_usic.h ****   union {
 508:C:/Users/lgg/Desktop/hithanbo/dave_ws/lgg_xmc/Libraries/XMCLib/inc\xmc_usic.h ****     __IO uint32_t  PSR_IICMode;	/**< I2C protocol status register*/
 509:C:/Users/lgg/Desktop/hithanbo/dave_ws/lgg_xmc/Libraries/XMCLib/inc\xmc_usic.h ****     __IO uint32_t  PSR_IISMode;	/**< I2S protocol status register*/
 510:C:/Users/lgg/Desktop/hithanbo/dave_ws/lgg_xmc/Libraries/XMCLib/inc\xmc_usic.h ****     __IO uint32_t  PSR_SSCMode;	/**< SPI protocol status register*/
 511:C:/Users/lgg/Desktop/hithanbo/dave_ws/lgg_xmc/Libraries/XMCLib/inc\xmc_usic.h ****     __IO uint32_t  PSR;			/**< Protocol status register*/
 512:C:/Users/lgg/Desktop/hithanbo/dave_ws/lgg_xmc/Libraries/XMCLib/inc\xmc_usic.h ****     __IO uint32_t  PSR_ASCMode;	/**< UART protocol status register*/
 513:C:/Users/lgg/Desktop/hithanbo/dave_ws/lgg_xmc/Libraries/XMCLib/inc\xmc_usic.h ****   };
 514:C:/Users/lgg/Desktop/hithanbo/dave_ws/lgg_xmc/Libraries/XMCLib/inc\xmc_usic.h ****   __O  uint32_t  PSCR;			/**< Protocol status clear register*/
 515:C:/Users/lgg/Desktop/hithanbo/dave_ws/lgg_xmc/Libraries/XMCLib/inc\xmc_usic.h ****   __I  uint32_t  RBUFSR;		/**< Receive buffer status register*/
 516:C:/Users/lgg/Desktop/hithanbo/dave_ws/lgg_xmc/Libraries/XMCLib/inc\xmc_usic.h ****   __I  uint32_t  RBUF;			/**< Receive buffer register*/
 517:C:/Users/lgg/Desktop/hithanbo/dave_ws/lgg_xmc/Libraries/XMCLib/inc\xmc_usic.h ****   __I  uint32_t  RBUFD;			/**< Debug mode receive buffer register*/
 518:C:/Users/lgg/Desktop/hithanbo/dave_ws/lgg_xmc/Libraries/XMCLib/inc\xmc_usic.h ****   __I  uint32_t  RBUF0;			/**< Receive buffer 0*/
 519:C:/Users/lgg/Desktop/hithanbo/dave_ws/lgg_xmc/Libraries/XMCLib/inc\xmc_usic.h ****   __I  uint32_t  RBUF1;			/**< Receive buffer 1*/
 520:C:/Users/lgg/Desktop/hithanbo/dave_ws/lgg_xmc/Libraries/XMCLib/inc\xmc_usic.h ****   __I  uint32_t  RBUF01SR;		/**< Receive buffer status register*/
 521:C:/Users/lgg/Desktop/hithanbo/dave_ws/lgg_xmc/Libraries/XMCLib/inc\xmc_usic.h ****   __O  uint32_t  FMR;			/**< Flag modification register*/
 522:C:/Users/lgg/Desktop/hithanbo/dave_ws/lgg_xmc/Libraries/XMCLib/inc\xmc_usic.h ****   __I  uint32_t  RESERVED2[5];
 523:C:/Users/lgg/Desktop/hithanbo/dave_ws/lgg_xmc/Libraries/XMCLib/inc\xmc_usic.h ****   __IO uint32_t  TBUF[32];		/**< Tranmsit buffer registers*/
 524:C:/Users/lgg/Desktop/hithanbo/dave_ws/lgg_xmc/Libraries/XMCLib/inc\xmc_usic.h ****   __IO uint32_t  BYP;			/**< FIFO bypass register*/
 525:C:/Users/lgg/Desktop/hithanbo/dave_ws/lgg_xmc/Libraries/XMCLib/inc\xmc_usic.h ****   __IO uint32_t  BYPCR;			/**< FIFO bypass control register*/
 526:C:/Users/lgg/Desktop/hithanbo/dave_ws/lgg_xmc/Libraries/XMCLib/inc\xmc_usic.h ****   __IO uint32_t  TBCTR;			/**< Transmit FIFO control register*/
 527:C:/Users/lgg/Desktop/hithanbo/dave_ws/lgg_xmc/Libraries/XMCLib/inc\xmc_usic.h ****   __IO uint32_t  RBCTR;			/**< Receive FIFO control register*/
 528:C:/Users/lgg/Desktop/hithanbo/dave_ws/lgg_xmc/Libraries/XMCLib/inc\xmc_usic.h ****   __I  uint32_t  TRBPTR;		/**< Transmit/recive buffer pointer register*/
 529:C:/Users/lgg/Desktop/hithanbo/dave_ws/lgg_xmc/Libraries/XMCLib/inc\xmc_usic.h ****   __IO uint32_t  TRBSR;			/**< Transmit/receive buffer status register*/
 530:C:/Users/lgg/Desktop/hithanbo/dave_ws/lgg_xmc/Libraries/XMCLib/inc\xmc_usic.h ****   __O  uint32_t  TRBSCR;		/**< Transmit/receive buffer status clear register*/
 531:C:/Users/lgg/Desktop/hithanbo/dave_ws/lgg_xmc/Libraries/XMCLib/inc\xmc_usic.h ****   __I  uint32_t  OUTR;			/**< Receive FIFO output register*/
 532:C:/Users/lgg/Desktop/hithanbo/dave_ws/lgg_xmc/Libraries/XMCLib/inc\xmc_usic.h ****   __I  uint32_t  OUTDR;			/**< Receive FIFO debug output register*/
 533:C:/Users/lgg/Desktop/hithanbo/dave_ws/lgg_xmc/Libraries/XMCLib/inc\xmc_usic.h ****   __I  uint32_t  RESERVED3[23];
 534:C:/Users/lgg/Desktop/hithanbo/dave_ws/lgg_xmc/Libraries/XMCLib/inc\xmc_usic.h ****   __O  uint32_t  IN[32];		/**< Transmit FIFO input register*/
 535:C:/Users/lgg/Desktop/hithanbo/dave_ws/lgg_xmc/Libraries/XMCLib/inc\xmc_usic.h **** } XMC_USIC_CH_t;
 536:C:/Users/lgg/Desktop/hithanbo/dave_ws/lgg_xmc/Libraries/XMCLib/inc\xmc_usic.h **** 
 537:C:/Users/lgg/Desktop/hithanbo/dave_ws/lgg_xmc/Libraries/XMCLib/inc\xmc_usic.h **** 
 538:C:/Users/lgg/Desktop/hithanbo/dave_ws/lgg_xmc/Libraries/XMCLib/inc\xmc_usic.h **** /*Anonymous structure/union guard end*/
 539:C:/Users/lgg/Desktop/hithanbo/dave_ws/lgg_xmc/Libraries/XMCLib/inc\xmc_usic.h **** #if defined(__CC_ARM)
 540:C:/Users/lgg/Desktop/hithanbo/dave_ws/lgg_xmc/Libraries/XMCLib/inc\xmc_usic.h ****   #pragma pop
 541:C:/Users/lgg/Desktop/hithanbo/dave_ws/lgg_xmc/Libraries/XMCLib/inc\xmc_usic.h **** #elif defined(__TASKING__)
 542:C:/Users/lgg/Desktop/hithanbo/dave_ws/lgg_xmc/Libraries/XMCLib/inc\xmc_usic.h ****   #pragma warning restore
 543:C:/Users/lgg/Desktop/hithanbo/dave_ws/lgg_xmc/Libraries/XMCLib/inc\xmc_usic.h **** #endif
 544:C:/Users/lgg/Desktop/hithanbo/dave_ws/lgg_xmc/Libraries/XMCLib/inc\xmc_usic.h **** 
 545:C:/Users/lgg/Desktop/hithanbo/dave_ws/lgg_xmc/Libraries/XMCLib/inc\xmc_usic.h **** /*******************************************************************************
 546:C:/Users/lgg/Desktop/hithanbo/dave_ws/lgg_xmc/Libraries/XMCLib/inc\xmc_usic.h ****  * API PROTOTYPES
 547:C:/Users/lgg/Desktop/hithanbo/dave_ws/lgg_xmc/Libraries/XMCLib/inc\xmc_usic.h ****  ******************************************************************************/
 548:C:/Users/lgg/Desktop/hithanbo/dave_ws/lgg_xmc/Libraries/XMCLib/inc\xmc_usic.h **** 
 549:C:/Users/lgg/Desktop/hithanbo/dave_ws/lgg_xmc/Libraries/XMCLib/inc\xmc_usic.h **** #ifdef __cplusplus
 550:C:/Users/lgg/Desktop/hithanbo/dave_ws/lgg_xmc/Libraries/XMCLib/inc\xmc_usic.h **** extern "C" {
 551:C:/Users/lgg/Desktop/hithanbo/dave_ws/lgg_xmc/Libraries/XMCLib/inc\xmc_usic.h **** #endif
 552:C:/Users/lgg/Desktop/hithanbo/dave_ws/lgg_xmc/Libraries/XMCLib/inc\xmc_usic.h **** 
 553:C:/Users/lgg/Desktop/hithanbo/dave_ws/lgg_xmc/Libraries/XMCLib/inc\xmc_usic.h **** __STATIC_INLINE bool XMC_USIC_IsModuleValid(const XMC_USIC_t *const module)
 554:C:/Users/lgg/Desktop/hithanbo/dave_ws/lgg_xmc/Libraries/XMCLib/inc\xmc_usic.h **** {
 555:C:/Users/lgg/Desktop/hithanbo/dave_ws/lgg_xmc/Libraries/XMCLib/inc\xmc_usic.h ****   bool tmp;
 556:C:/Users/lgg/Desktop/hithanbo/dave_ws/lgg_xmc/Libraries/XMCLib/inc\xmc_usic.h **** 
 557:C:/Users/lgg/Desktop/hithanbo/dave_ws/lgg_xmc/Libraries/XMCLib/inc\xmc_usic.h ****   tmp = (module == XMC_USIC0);
 558:C:/Users/lgg/Desktop/hithanbo/dave_ws/lgg_xmc/Libraries/XMCLib/inc\xmc_usic.h **** #if defined(XMC_USIC1)  
 559:C:/Users/lgg/Desktop/hithanbo/dave_ws/lgg_xmc/Libraries/XMCLib/inc\xmc_usic.h ****   tmp = tmp || (module == XMC_USIC1);
 560:C:/Users/lgg/Desktop/hithanbo/dave_ws/lgg_xmc/Libraries/XMCLib/inc\xmc_usic.h **** #endif
 561:C:/Users/lgg/Desktop/hithanbo/dave_ws/lgg_xmc/Libraries/XMCLib/inc\xmc_usic.h **** #if defined(XMC_USIC2)  
 562:C:/Users/lgg/Desktop/hithanbo/dave_ws/lgg_xmc/Libraries/XMCLib/inc\xmc_usic.h ****   tmp = tmp || (module == XMC_USIC2);
 563:C:/Users/lgg/Desktop/hithanbo/dave_ws/lgg_xmc/Libraries/XMCLib/inc\xmc_usic.h **** #endif
 564:C:/Users/lgg/Desktop/hithanbo/dave_ws/lgg_xmc/Libraries/XMCLib/inc\xmc_usic.h **** 
 565:C:/Users/lgg/Desktop/hithanbo/dave_ws/lgg_xmc/Libraries/XMCLib/inc\xmc_usic.h ****   return tmp;
 566:C:/Users/lgg/Desktop/hithanbo/dave_ws/lgg_xmc/Libraries/XMCLib/inc\xmc_usic.h **** }
 567:C:/Users/lgg/Desktop/hithanbo/dave_ws/lgg_xmc/Libraries/XMCLib/inc\xmc_usic.h **** 
 568:C:/Users/lgg/Desktop/hithanbo/dave_ws/lgg_xmc/Libraries/XMCLib/inc\xmc_usic.h **** __STATIC_INLINE bool XMC_USIC_IsChannelValid(const XMC_USIC_CH_t *const channel)
 569:C:/Users/lgg/Desktop/hithanbo/dave_ws/lgg_xmc/Libraries/XMCLib/inc\xmc_usic.h **** {
 570:C:/Users/lgg/Desktop/hithanbo/dave_ws/lgg_xmc/Libraries/XMCLib/inc\xmc_usic.h ****   bool tmp;
 571:C:/Users/lgg/Desktop/hithanbo/dave_ws/lgg_xmc/Libraries/XMCLib/inc\xmc_usic.h **** 
 572:C:/Users/lgg/Desktop/hithanbo/dave_ws/lgg_xmc/Libraries/XMCLib/inc\xmc_usic.h ****   tmp = ((channel == XMC_USIC0_CH0) || (channel == XMC_USIC0_CH1));
 573:C:/Users/lgg/Desktop/hithanbo/dave_ws/lgg_xmc/Libraries/XMCLib/inc\xmc_usic.h **** #if defined(XMC_USIC1)  
 574:C:/Users/lgg/Desktop/hithanbo/dave_ws/lgg_xmc/Libraries/XMCLib/inc\xmc_usic.h ****   tmp = tmp || ((channel == XMC_USIC1_CH0) || (channel == XMC_USIC1_CH1));
 575:C:/Users/lgg/Desktop/hithanbo/dave_ws/lgg_xmc/Libraries/XMCLib/inc\xmc_usic.h **** #endif
 576:C:/Users/lgg/Desktop/hithanbo/dave_ws/lgg_xmc/Libraries/XMCLib/inc\xmc_usic.h **** #if defined(XMC_USIC2)  
 577:C:/Users/lgg/Desktop/hithanbo/dave_ws/lgg_xmc/Libraries/XMCLib/inc\xmc_usic.h ****   tmp = tmp || ((channel == XMC_USIC2_CH0) || (channel == XMC_USIC2_CH1));
 578:C:/Users/lgg/Desktop/hithanbo/dave_ws/lgg_xmc/Libraries/XMCLib/inc\xmc_usic.h **** #endif
 579:C:/Users/lgg/Desktop/hithanbo/dave_ws/lgg_xmc/Libraries/XMCLib/inc\xmc_usic.h **** 
 580:C:/Users/lgg/Desktop/hithanbo/dave_ws/lgg_xmc/Libraries/XMCLib/inc\xmc_usic.h ****   return tmp;
 581:C:/Users/lgg/Desktop/hithanbo/dave_ws/lgg_xmc/Libraries/XMCLib/inc\xmc_usic.h **** }
 582:C:/Users/lgg/Desktop/hithanbo/dave_ws/lgg_xmc/Libraries/XMCLib/inc\xmc_usic.h **** 
 583:C:/Users/lgg/Desktop/hithanbo/dave_ws/lgg_xmc/Libraries/XMCLib/inc\xmc_usic.h **** /* Common APIs */
 584:C:/Users/lgg/Desktop/hithanbo/dave_ws/lgg_xmc/Libraries/XMCLib/inc\xmc_usic.h **** 
 585:C:/Users/lgg/Desktop/hithanbo/dave_ws/lgg_xmc/Libraries/XMCLib/inc\xmc_usic.h **** /**
 586:C:/Users/lgg/Desktop/hithanbo/dave_ws/lgg_xmc/Libraries/XMCLib/inc\xmc_usic.h ****  * @param  usic Pointer to USIC module handler of type @ref XMC_USIC_t.\n
 587:C:/Users/lgg/Desktop/hithanbo/dave_ws/lgg_xmc/Libraries/XMCLib/inc\xmc_usic.h ****  * 				\b Range: @ref XMC_USIC0 to @ref XMC_USIC2 based on device support.
 588:C:/Users/lgg/Desktop/hithanbo/dave_ws/lgg_xmc/Libraries/XMCLib/inc\xmc_usic.h ****  * @return None
 589:C:/Users/lgg/Desktop/hithanbo/dave_ws/lgg_xmc/Libraries/XMCLib/inc\xmc_usic.h ****  * 
 590:C:/Users/lgg/Desktop/hithanbo/dave_ws/lgg_xmc/Libraries/XMCLib/inc\xmc_usic.h ****  * \par<b>Description</b><br>
 591:C:/Users/lgg/Desktop/hithanbo/dave_ws/lgg_xmc/Libraries/XMCLib/inc\xmc_usic.h ****  * Enables the USIC module.\n\n
 592:C:/Users/lgg/Desktop/hithanbo/dave_ws/lgg_xmc/Libraries/XMCLib/inc\xmc_usic.h ****  * Enables the clock for the USIC module by following the
 593:C:/Users/lgg/Desktop/hithanbo/dave_ws/lgg_xmc/Libraries/XMCLib/inc\xmc_usic.h ****  * clock enabling sequence for the selected device.
 594:C:/Users/lgg/Desktop/hithanbo/dave_ws/lgg_xmc/Libraries/XMCLib/inc\xmc_usic.h ****  *
 595:C:/Users/lgg/Desktop/hithanbo/dave_ws/lgg_xmc/Libraries/XMCLib/inc\xmc_usic.h ****  * \par<b>Related APIs:</b><BR>
 596:C:/Users/lgg/Desktop/hithanbo/dave_ws/lgg_xmc/Libraries/XMCLib/inc\xmc_usic.h ****  * XMC_USIC_CH_Enable(), XMC_USIC_Disable() \n\n\n
 597:C:/Users/lgg/Desktop/hithanbo/dave_ws/lgg_xmc/Libraries/XMCLib/inc\xmc_usic.h ****  */
 598:C:/Users/lgg/Desktop/hithanbo/dave_ws/lgg_xmc/Libraries/XMCLib/inc\xmc_usic.h **** void XMC_USIC_Enable(XMC_USIC_t *const usic);
 599:C:/Users/lgg/Desktop/hithanbo/dave_ws/lgg_xmc/Libraries/XMCLib/inc\xmc_usic.h **** /**
 600:C:/Users/lgg/Desktop/hithanbo/dave_ws/lgg_xmc/Libraries/XMCLib/inc\xmc_usic.h ****  * @param  usic Pointer to USIC module handler of type @ref XMC_USIC_t.\n
 601:C:/Users/lgg/Desktop/hithanbo/dave_ws/lgg_xmc/Libraries/XMCLib/inc\xmc_usic.h ****  * 				\b Range: @ref XMC_USIC0 to @ref XMC_USIC2 based on device support.
 602:C:/Users/lgg/Desktop/hithanbo/dave_ws/lgg_xmc/Libraries/XMCLib/inc\xmc_usic.h ****  * @return None
 603:C:/Users/lgg/Desktop/hithanbo/dave_ws/lgg_xmc/Libraries/XMCLib/inc\xmc_usic.h ****  *
 604:C:/Users/lgg/Desktop/hithanbo/dave_ws/lgg_xmc/Libraries/XMCLib/inc\xmc_usic.h ****  * \par<b>Description</b><br>
 605:C:/Users/lgg/Desktop/hithanbo/dave_ws/lgg_xmc/Libraries/XMCLib/inc\xmc_usic.h ****  * Disables the USIC module.\n\n
 606:C:/Users/lgg/Desktop/hithanbo/dave_ws/lgg_xmc/Libraries/XMCLib/inc\xmc_usic.h ****  * Disables the clock for the USIC module by following the clock
 607:C:/Users/lgg/Desktop/hithanbo/dave_ws/lgg_xmc/Libraries/XMCLib/inc\xmc_usic.h ****  * disabling sequence for the selected device.
 608:C:/Users/lgg/Desktop/hithanbo/dave_ws/lgg_xmc/Libraries/XMCLib/inc\xmc_usic.h ****  *
 609:C:/Users/lgg/Desktop/hithanbo/dave_ws/lgg_xmc/Libraries/XMCLib/inc\xmc_usic.h ****  * \par<b>Related APIs:</b><BR>
 610:C:/Users/lgg/Desktop/hithanbo/dave_ws/lgg_xmc/Libraries/XMCLib/inc\xmc_usic.h ****  * XMC_USIC_CH_Disable(), XMC_USIC_Enable() \n\n\n
 611:C:/Users/lgg/Desktop/hithanbo/dave_ws/lgg_xmc/Libraries/XMCLib/inc\xmc_usic.h ****  */
 612:C:/Users/lgg/Desktop/hithanbo/dave_ws/lgg_xmc/Libraries/XMCLib/inc\xmc_usic.h **** void XMC_USIC_Disable(XMC_USIC_t *const usic);
 613:C:/Users/lgg/Desktop/hithanbo/dave_ws/lgg_xmc/Libraries/XMCLib/inc\xmc_usic.h **** /**
 614:C:/Users/lgg/Desktop/hithanbo/dave_ws/lgg_xmc/Libraries/XMCLib/inc\xmc_usic.h ****  * @param  channel Pointer to USIC channel handler of type @ref XMC_USIC_CH_t \n
 615:C:/Users/lgg/Desktop/hithanbo/dave_ws/lgg_xmc/Libraries/XMCLib/inc\xmc_usic.h ****  * 				   \b Range: @ref XMC_USIC0_CH0, @ref XMC_USIC0_CH1 to @ref XMC_USIC2_CH1 based on device su
 616:C:/Users/lgg/Desktop/hithanbo/dave_ws/lgg_xmc/Libraries/XMCLib/inc\xmc_usic.h ****  * @return None
 617:C:/Users/lgg/Desktop/hithanbo/dave_ws/lgg_xmc/Libraries/XMCLib/inc\xmc_usic.h ****  *
 618:C:/Users/lgg/Desktop/hithanbo/dave_ws/lgg_xmc/Libraries/XMCLib/inc\xmc_usic.h ****  * \par<b>Description</b><br>
 619:C:/Users/lgg/Desktop/hithanbo/dave_ws/lgg_xmc/Libraries/XMCLib/inc\xmc_usic.h ****  * Enables the USIC channel. \n\n
 620:C:/Users/lgg/Desktop/hithanbo/dave_ws/lgg_xmc/Libraries/XMCLib/inc\xmc_usic.h ****  * USIC channel is enabled by setting the module enable bit in KSCFG register bitfield MODEN.
 621:C:/Users/lgg/Desktop/hithanbo/dave_ws/lgg_xmc/Libraries/XMCLib/inc\xmc_usic.h ****  * On enabling, the channel is set to idle mode.
 622:C:/Users/lgg/Desktop/hithanbo/dave_ws/lgg_xmc/Libraries/XMCLib/inc\xmc_usic.h ****  *
 623:C:/Users/lgg/Desktop/hithanbo/dave_ws/lgg_xmc/Libraries/XMCLib/inc\xmc_usic.h ****  * \par<b>Related APIs:</b><BR>
 624:C:/Users/lgg/Desktop/hithanbo/dave_ws/lgg_xmc/Libraries/XMCLib/inc\xmc_usic.h ****  * XMC_USIC_CH_Disable(), XMC_USIC_Enable() \n\n\n
 625:C:/Users/lgg/Desktop/hithanbo/dave_ws/lgg_xmc/Libraries/XMCLib/inc\xmc_usic.h ****  */
 626:C:/Users/lgg/Desktop/hithanbo/dave_ws/lgg_xmc/Libraries/XMCLib/inc\xmc_usic.h **** void XMC_USIC_CH_Enable(XMC_USIC_CH_t *const channel);
 627:C:/Users/lgg/Desktop/hithanbo/dave_ws/lgg_xmc/Libraries/XMCLib/inc\xmc_usic.h **** /**
 628:C:/Users/lgg/Desktop/hithanbo/dave_ws/lgg_xmc/Libraries/XMCLib/inc\xmc_usic.h ****  * @param  channel Pointer to USIC channel handler of type @ref XMC_USIC_CH_t \n
 629:C:/Users/lgg/Desktop/hithanbo/dave_ws/lgg_xmc/Libraries/XMCLib/inc\xmc_usic.h ****  * 				   \b Range: @ref XMC_USIC0_CH0, @ref XMC_USIC0_CH1 to @ref XMC_USIC2_CH1 based on device su
 630:C:/Users/lgg/Desktop/hithanbo/dave_ws/lgg_xmc/Libraries/XMCLib/inc\xmc_usic.h ****  * @return None
 631:C:/Users/lgg/Desktop/hithanbo/dave_ws/lgg_xmc/Libraries/XMCLib/inc\xmc_usic.h ****  *
 632:C:/Users/lgg/Desktop/hithanbo/dave_ws/lgg_xmc/Libraries/XMCLib/inc\xmc_usic.h ****  * \par<b>Description</b><br>
 633:C:/Users/lgg/Desktop/hithanbo/dave_ws/lgg_xmc/Libraries/XMCLib/inc\xmc_usic.h ****  * Disables the USIC channel.\n\n
 634:C:/Users/lgg/Desktop/hithanbo/dave_ws/lgg_xmc/Libraries/XMCLib/inc\xmc_usic.h ****  * USIC channel is disabled by setting the module enable bit(MDEN) to 0 in the register KSCFG.
 635:C:/Users/lgg/Desktop/hithanbo/dave_ws/lgg_xmc/Libraries/XMCLib/inc\xmc_usic.h ****  *
 636:C:/Users/lgg/Desktop/hithanbo/dave_ws/lgg_xmc/Libraries/XMCLib/inc\xmc_usic.h ****  * \par<b>Related APIs:</b><BR>
 637:C:/Users/lgg/Desktop/hithanbo/dave_ws/lgg_xmc/Libraries/XMCLib/inc\xmc_usic.h ****  * XMC_USIC_CH_Enable(), XMC_USIC_Disable() \n\n\n
 638:C:/Users/lgg/Desktop/hithanbo/dave_ws/lgg_xmc/Libraries/XMCLib/inc\xmc_usic.h ****  */
 639:C:/Users/lgg/Desktop/hithanbo/dave_ws/lgg_xmc/Libraries/XMCLib/inc\xmc_usic.h **** void XMC_USIC_CH_Disable(XMC_USIC_CH_t *const channel);
 640:C:/Users/lgg/Desktop/hithanbo/dave_ws/lgg_xmc/Libraries/XMCLib/inc\xmc_usic.h **** 
 641:C:/Users/lgg/Desktop/hithanbo/dave_ws/lgg_xmc/Libraries/XMCLib/inc\xmc_usic.h **** /**
 642:C:/Users/lgg/Desktop/hithanbo/dave_ws/lgg_xmc/Libraries/XMCLib/inc\xmc_usic.h ****  * @param  channel Pointer to USIC channel handler of type @ref XMC_USIC_CH_t \n
 643:C:/Users/lgg/Desktop/hithanbo/dave_ws/lgg_xmc/Libraries/XMCLib/inc\xmc_usic.h ****  * 				   \b Range: @ref XMC_USIC0_CH0, @ref XMC_USIC0_CH1 to @ref XMC_USIC2_CH1 based on device su
 644:C:/Users/lgg/Desktop/hithanbo/dave_ws/lgg_xmc/Libraries/XMCLib/inc\xmc_usic.h ****  * @param  rate Desired baudrate. \b Range: minimum value = 100, maximum value depends on the perip
 645:C:/Users/lgg/Desktop/hithanbo/dave_ws/lgg_xmc/Libraries/XMCLib/inc\xmc_usic.h ****  * 				and \a oversampling. Maximum baudrate can be derived using the formula: (fperiph * 1023)/(10
 646:C:/Users/lgg/Desktop/hithanbo/dave_ws/lgg_xmc/Libraries/XMCLib/inc\xmc_usic.h ****  * @param  oversampling Required oversampling. The value indicates the number of time quanta for on
 647:C:/Users/lgg/Desktop/hithanbo/dave_ws/lgg_xmc/Libraries/XMCLib/inc\xmc_usic.h ****  * 						This can be related to the number of samples for each logic state of the data signal. \n
 648:C:/Users/lgg/Desktop/hithanbo/dave_ws/lgg_xmc/Libraries/XMCLib/inc\xmc_usic.h ****  * 						\b Range: 1 to 32. Value should be chosen based on the protocol used.
 649:C:/Users/lgg/Desktop/hithanbo/dave_ws/lgg_xmc/Libraries/XMCLib/inc\xmc_usic.h ****  * @return Status indicating the baudrate configuration.\n
 650:C:/Users/lgg/Desktop/hithanbo/dave_ws/lgg_xmc/Libraries/XMCLib/inc\xmc_usic.h ****  * 			\b Range: @ref XMC_USIC_CH_STATUS_OK if baudrate is successfully configured,
 651:C:/Users/lgg/Desktop/hithanbo/dave_ws/lgg_xmc/Libraries/XMCLib/inc\xmc_usic.h ****  * 					  @ref XMC_USIC_CH_STATUS_ERROR if desired baudrate or oversampling is invalid.
 652:C:/Users/lgg/Desktop/hithanbo/dave_ws/lgg_xmc/Libraries/XMCLib/inc\xmc_usic.h ****  *
 653:C:/Users/lgg/Desktop/hithanbo/dave_ws/lgg_xmc/Libraries/XMCLib/inc\xmc_usic.h ****  * \par<b>Description</b><br>
 654:C:/Users/lgg/Desktop/hithanbo/dave_ws/lgg_xmc/Libraries/XMCLib/inc\xmc_usic.h ****  * Configures the baudrate of the USIC channel. \n\n
 655:C:/Users/lgg/Desktop/hithanbo/dave_ws/lgg_xmc/Libraries/XMCLib/inc\xmc_usic.h ****  * Baudrate is configured by considering the peripheral frequency and the desired baudrate.
 656:C:/Users/lgg/Desktop/hithanbo/dave_ws/lgg_xmc/Libraries/XMCLib/inc\xmc_usic.h ****  * Optimum values of FDR->STEP and BRG->PDIV are calulated and used for generating the desired
 657:C:/Users/lgg/Desktop/hithanbo/dave_ws/lgg_xmc/Libraries/XMCLib/inc\xmc_usic.h ****  * baudrate.
 658:C:/Users/lgg/Desktop/hithanbo/dave_ws/lgg_xmc/Libraries/XMCLib/inc\xmc_usic.h ****  *
 659:C:/Users/lgg/Desktop/hithanbo/dave_ws/lgg_xmc/Libraries/XMCLib/inc\xmc_usic.h ****  * \par<b>Related APIs:</b><BR>
 660:C:/Users/lgg/Desktop/hithanbo/dave_ws/lgg_xmc/Libraries/XMCLib/inc\xmc_usic.h ****  * XMC_USIC_CH_SetStartTransmisionMode(), XMC_USIC_CH_SetInputSource() \n\n\n
 661:C:/Users/lgg/Desktop/hithanbo/dave_ws/lgg_xmc/Libraries/XMCLib/inc\xmc_usic.h ****  */
 662:C:/Users/lgg/Desktop/hithanbo/dave_ws/lgg_xmc/Libraries/XMCLib/inc\xmc_usic.h **** XMC_USIC_CH_STATUS_t XMC_USIC_CH_SetBaudrate(XMC_USIC_CH_t *const channel, uint32_t rate, uint32_t 
 663:C:/Users/lgg/Desktop/hithanbo/dave_ws/lgg_xmc/Libraries/XMCLib/inc\xmc_usic.h **** 
 664:C:/Users/lgg/Desktop/hithanbo/dave_ws/lgg_xmc/Libraries/XMCLib/inc\xmc_usic.h **** /**
 665:C:/Users/lgg/Desktop/hithanbo/dave_ws/lgg_xmc/Libraries/XMCLib/inc\xmc_usic.h ****  * @param  channel Pointer to USIC channel handler of type @ref XMC_USIC_CH_t \n
 666:C:/Users/lgg/Desktop/hithanbo/dave_ws/lgg_xmc/Libraries/XMCLib/inc\xmc_usic.h ****  * 				   \b Range: @ref XMC_USIC0_CH0, @ref XMC_USIC0_CH1 to @ref XMC_USIC2_CH1 based on device su
 667:C:/Users/lgg/Desktop/hithanbo/dave_ws/lgg_xmc/Libraries/XMCLib/inc\xmc_usic.h ****  * @param  pdiv Desired divider for the external frequency input. \b Range: minimum value = 1, maxi
 668:C:/Users/lgg/Desktop/hithanbo/dave_ws/lgg_xmc/Libraries/XMCLib/inc\xmc_usic.h ****  * @param  oversampling Required oversampling. The value indicates the number of time quanta for on
 669:C:/Users/lgg/Desktop/hithanbo/dave_ws/lgg_xmc/Libraries/XMCLib/inc\xmc_usic.h ****  * 						This can be related to the number of samples for each logic state of the data signal. \n
 670:C:/Users/lgg/Desktop/hithanbo/dave_ws/lgg_xmc/Libraries/XMCLib/inc\xmc_usic.h ****  * 						\b Range: 1 to 32. Value should be chosen based on the protocol used.
 671:C:/Users/lgg/Desktop/hithanbo/dave_ws/lgg_xmc/Libraries/XMCLib/inc\xmc_usic.h ****  * @param  combination_mode Selects which edge of the synchronized(and optionally filtered) signal 
 672:C:/Users/lgg/Desktop/hithanbo/dave_ws/lgg_xmc/Libraries/XMCLib/inc\xmc_usic.h ****  *                          output DXnT of the input stage.
 673:C:/Users/lgg/Desktop/hithanbo/dave_ws/lgg_xmc/Libraries/XMCLib/inc\xmc_usic.h ****  *
 674:C:/Users/lgg/Desktop/hithanbo/dave_ws/lgg_xmc/Libraries/XMCLib/inc\xmc_usic.h ****  * @return None
 675:C:/Users/lgg/Desktop/hithanbo/dave_ws/lgg_xmc/Libraries/XMCLib/inc\xmc_usic.h ****  *
 676:C:/Users/lgg/Desktop/hithanbo/dave_ws/lgg_xmc/Libraries/XMCLib/inc\xmc_usic.h ****  * \par<b>Description</b><br>
 677:C:/Users/lgg/Desktop/hithanbo/dave_ws/lgg_xmc/Libraries/XMCLib/inc\xmc_usic.h ****  * Enables the external frequency input for the Baudrate Generator and configures the divider, over
 678:C:/Users/lgg/Desktop/hithanbo/dave_ws/lgg_xmc/Libraries/XMCLib/inc\xmc_usic.h ****  * the combination mode of the USIC channel. \n\n
 679:C:/Users/lgg/Desktop/hithanbo/dave_ws/lgg_xmc/Libraries/XMCLib/inc\xmc_usic.h ****  *
 680:C:/Users/lgg/Desktop/hithanbo/dave_ws/lgg_xmc/Libraries/XMCLib/inc\xmc_usic.h ****  * \par<b>Related APIs:</b><BR>
 681:C:/Users/lgg/Desktop/hithanbo/dave_ws/lgg_xmc/Libraries/XMCLib/inc\xmc_usic.h ****  * XMC_USIC_CH_SetBRGInputClockSource(), XMC_USIC_CH_SetInputTriggerCombinationMode() \n\n\n
 682:C:/Users/lgg/Desktop/hithanbo/dave_ws/lgg_xmc/Libraries/XMCLib/inc\xmc_usic.h ****  */
 683:C:/Users/lgg/Desktop/hithanbo/dave_ws/lgg_xmc/Libraries/XMCLib/inc\xmc_usic.h **** void XMC_USIC_CH_ConfigExternalInputSignalToBRG(XMC_USIC_CH_t *const channel,
 684:C:/Users/lgg/Desktop/hithanbo/dave_ws/lgg_xmc/Libraries/XMCLib/inc\xmc_usic.h **** 		                                         const uint16_t pdiv,
 685:C:/Users/lgg/Desktop/hithanbo/dave_ws/lgg_xmc/Libraries/XMCLib/inc\xmc_usic.h **** 												 const uint32_t oversampling,
 686:C:/Users/lgg/Desktop/hithanbo/dave_ws/lgg_xmc/Libraries/XMCLib/inc\xmc_usic.h **** 												 const XMC_USIC_CH_INPUT_COMBINATION_MODE_t combination_mode);
 687:C:/Users/lgg/Desktop/hithanbo/dave_ws/lgg_xmc/Libraries/XMCLib/inc\xmc_usic.h **** 
 688:C:/Users/lgg/Desktop/hithanbo/dave_ws/lgg_xmc/Libraries/XMCLib/inc\xmc_usic.h **** /**
 689:C:/Users/lgg/Desktop/hithanbo/dave_ws/lgg_xmc/Libraries/XMCLib/inc\xmc_usic.h ****  * @param  channel Pointer to USIC channel handler of type @ref XMC_USIC_CH_t \n
 690:C:/Users/lgg/Desktop/hithanbo/dave_ws/lgg_xmc/Libraries/XMCLib/inc\xmc_usic.h ****  * 				   \b Range: @ref XMC_USIC0_CH0, @ref XMC_USIC0_CH1 to @ref XMC_USIC2_CH1 based on device su
 691:C:/Users/lgg/Desktop/hithanbo/dave_ws/lgg_xmc/Libraries/XMCLib/inc\xmc_usic.h ****  * @param  input USIC channel input stage of type @ref XMC_USIC_CH_INPUT_t. \n
 692:C:/Users/lgg/Desktop/hithanbo/dave_ws/lgg_xmc/Libraries/XMCLib/inc\xmc_usic.h ****  * 				 \b Range: @ref XMC_USIC_CH_INPUT_DX0 to @ref XMC_USIC_CH_INPUT_DX5
 693:C:/Users/lgg/Desktop/hithanbo/dave_ws/lgg_xmc/Libraries/XMCLib/inc\xmc_usic.h ****  * @param  source Input source select for the input stage. The table below maps the enum value with
 694:C:/Users/lgg/Desktop/hithanbo/dave_ws/lgg_xmc/Libraries/XMCLib/inc\xmc_usic.h ****  * <table><tr><td>0</td><td>DXnA</td></tr><tr><td>1</td><td>DXnB</td></tr><tr><td>2</td><td>DXnC</t
 695:C:/Users/lgg/Desktop/hithanbo/dave_ws/lgg_xmc/Libraries/XMCLib/inc\xmc_usic.h ****  * <tr><td>4</td><td>DXnE</td></tr><tr><td>5</td><td>DXnF</td></tr><tr><td>6</td><td>DXnG</td></tr>
 696:C:/Users/lgg/Desktop/hithanbo/dave_ws/lgg_xmc/Libraries/XMCLib/inc\xmc_usic.h ****  * </tr></table>
 697:C:/Users/lgg/Desktop/hithanbo/dave_ws/lgg_xmc/Libraries/XMCLib/inc\xmc_usic.h ****  * @return None
 698:C:/Users/lgg/Desktop/hithanbo/dave_ws/lgg_xmc/Libraries/XMCLib/inc\xmc_usic.h ****  *
 699:C:/Users/lgg/Desktop/hithanbo/dave_ws/lgg_xmc/Libraries/XMCLib/inc\xmc_usic.h ****  * \par<b>Description</b><br>
 700:C:/Users/lgg/Desktop/hithanbo/dave_ws/lgg_xmc/Libraries/XMCLib/inc\xmc_usic.h ****  * Selects the data source for USIC input stage.\n\n
 701:C:/Users/lgg/Desktop/hithanbo/dave_ws/lgg_xmc/Libraries/XMCLib/inc\xmc_usic.h ****  * Selects the input data signal source among DXnA, DXnB.. DXnG for the input stage. The API can be
 702:C:/Users/lgg/Desktop/hithanbo/dave_ws/lgg_xmc/Libraries/XMCLib/inc\xmc_usic.h ****  * like DX0CR, DX1CR etc. 
 703:C:/Users/lgg/Desktop/hithanbo/dave_ws/lgg_xmc/Libraries/XMCLib/inc\xmc_usic.h ****  *  
 704:C:/Users/lgg/Desktop/hithanbo/dave_ws/lgg_xmc/Libraries/XMCLib/inc\xmc_usic.h ****  * \par<b>Related APIs:</b><BR>
 705:C:/Users/lgg/Desktop/hithanbo/dave_ws/lgg_xmc/Libraries/XMCLib/inc\xmc_usic.h ****  * XMC_USIC_CH_EnableInputInversion(), XMC_USIC_CH_EnableInputDigitalFilter(), XMC_USIC_CH_EnableIn
 706:C:/Users/lgg/Desktop/hithanbo/dave_ws/lgg_xmc/Libraries/XMCLib/inc\xmc_usic.h ****  * XMC_USIC_CH_SetInputSamplingFreq()\n\n\n
 707:C:/Users/lgg/Desktop/hithanbo/dave_ws/lgg_xmc/Libraries/XMCLib/inc\xmc_usic.h ****  */
 708:C:/Users/lgg/Desktop/hithanbo/dave_ws/lgg_xmc/Libraries/XMCLib/inc\xmc_usic.h **** __STATIC_INLINE void XMC_USIC_CH_SetInputSource(XMC_USIC_CH_t *const channel, const XMC_USIC_CH_INP
 709:C:/Users/lgg/Desktop/hithanbo/dave_ws/lgg_xmc/Libraries/XMCLib/inc\xmc_usic.h **** {
  27              	 .loc 1 709 0
  28              	 .cfi_startproc
  29              	 
  30              	 
  31              	 
  32 0000 80B4     	 push {r7}
  33              	.LCFI0:
  34              	 .cfi_def_cfa_offset 4
  35              	 .cfi_offset 7,-4
  36 0002 83B0     	 sub sp,sp,#12
  37              	.LCFI1:
  38              	 .cfi_def_cfa_offset 16
  39 0004 00AF     	 add r7,sp,#0
  40              	.LCFI2:
  41              	 .cfi_def_cfa_register 7
  42 0006 7860     	 str r0,[r7,#4]
  43 0008 0B46     	 mov r3,r1
  44 000a FB70     	 strb r3,[r7,#3]
  45 000c 1346     	 mov r3,r2
  46 000e BB70     	 strb r3,[r7,#2]
 710:C:/Users/lgg/Desktop/hithanbo/dave_ws/lgg_xmc/Libraries/XMCLib/inc\xmc_usic.h ****   channel->DXCR[input] = (uint32_t)((channel->DXCR[input] & (uint32_t)(~USIC_CH_DXCR_DSEL_Msk)) |
  47              	 .loc 1 710 0
  48 0010 F878     	 ldrb r0,[r7,#3]
  49 0012 FB78     	 ldrb r3,[r7,#3]
  50 0014 7A68     	 ldr r2,[r7,#4]
  51 0016 0633     	 adds r3,r3,#6
  52 0018 9B00     	 lsls r3,r3,#2
  53 001a 1344     	 add r3,r3,r2
  54 001c 5B68     	 ldr r3,[r3,#4]
  55 001e 23F00702 	 bic r2,r3,#7
 711:C:/Users/lgg/Desktop/hithanbo/dave_ws/lgg_xmc/Libraries/XMCLib/inc\xmc_usic.h ****                          ((uint32_t)source << USIC_CH_DXCR_DSEL_Pos));
  56              	 .loc 1 711 0
  57 0022 BB78     	 ldrb r3,[r7,#2]
 710:C:/Users/lgg/Desktop/hithanbo/dave_ws/lgg_xmc/Libraries/XMCLib/inc\xmc_usic.h ****   channel->DXCR[input] = (uint32_t)((channel->DXCR[input] & (uint32_t)(~USIC_CH_DXCR_DSEL_Msk)) |
  58              	 .loc 1 710 0
  59 0024 1A43     	 orrs r2,r2,r3
  60 0026 7968     	 ldr r1,[r7,#4]
  61 0028 831D     	 adds r3,r0,#6
  62 002a 9B00     	 lsls r3,r3,#2
  63 002c 0B44     	 add r3,r3,r1
  64 002e 5A60     	 str r2,[r3,#4]
 712:C:/Users/lgg/Desktop/hithanbo/dave_ws/lgg_xmc/Libraries/XMCLib/inc\xmc_usic.h **** }
  65              	 .loc 1 712 0
  66 0030 0C37     	 adds r7,r7,#12
  67              	.LCFI3:
  68              	 .cfi_def_cfa_offset 4
  69 0032 BD46     	 mov sp,r7
  70              	.LCFI4:
  71              	 .cfi_def_cfa_register 13
  72              	 
  73 0034 5DF8047B 	 ldr r7,[sp],#4
  74              	.LCFI5:
  75              	 .cfi_restore 7
  76              	 .cfi_def_cfa_offset 0
  77 0038 7047     	 bx lr
  78              	 .cfi_endproc
  79              	.LFE139:
  81 003a 00BF     	 .section .text.XMC_USIC_CH_SetMode,"ax",%progbits
  82              	 .align 2
  83              	 .thumb
  84              	 .thumb_func
  86              	XMC_USIC_CH_SetMode:
  87              	.LFB197:
 713:C:/Users/lgg/Desktop/hithanbo/dave_ws/lgg_xmc/Libraries/XMCLib/inc\xmc_usic.h **** /**
 714:C:/Users/lgg/Desktop/hithanbo/dave_ws/lgg_xmc/Libraries/XMCLib/inc\xmc_usic.h ****  * @param  channel Pointer to USIC channel handler of type @ref XMC_USIC_CH_t \n
 715:C:/Users/lgg/Desktop/hithanbo/dave_ws/lgg_xmc/Libraries/XMCLib/inc\xmc_usic.h ****  * 				   \b Range: @ref XMC_USIC0_CH0, @ref XMC_USIC0_CH1 to @ref XMC_USIC2_CH1 based on device su
 716:C:/Users/lgg/Desktop/hithanbo/dave_ws/lgg_xmc/Libraries/XMCLib/inc\xmc_usic.h ****  * @param  input USIC channel input stage of type @ref XMC_USIC_CH_INPUT_t. \n
 717:C:/Users/lgg/Desktop/hithanbo/dave_ws/lgg_xmc/Libraries/XMCLib/inc\xmc_usic.h ****  * 				 \b Range: @ref XMC_USIC_CH_INPUT_DX0 to @ref XMC_USIC_CH_INPUT_DX5
 718:C:/Users/lgg/Desktop/hithanbo/dave_ws/lgg_xmc/Libraries/XMCLib/inc\xmc_usic.h ****  * @return None
 719:C:/Users/lgg/Desktop/hithanbo/dave_ws/lgg_xmc/Libraries/XMCLib/inc\xmc_usic.h ****  *
 720:C:/Users/lgg/Desktop/hithanbo/dave_ws/lgg_xmc/Libraries/XMCLib/inc\xmc_usic.h ****  * \par<b>Description</b><br>
 721:C:/Users/lgg/Desktop/hithanbo/dave_ws/lgg_xmc/Libraries/XMCLib/inc\xmc_usic.h ****  * The input of the data shift unit is controlled by the
 722:C:/Users/lgg/Desktop/hithanbo/dave_ws/lgg_xmc/Libraries/XMCLib/inc\xmc_usic.h ****  * protocol pre-processor. \n\n
 723:C:/Users/lgg/Desktop/hithanbo/dave_ws/lgg_xmc/Libraries/XMCLib/inc\xmc_usic.h ****  *
 724:C:/Users/lgg/Desktop/hithanbo/dave_ws/lgg_xmc/Libraries/XMCLib/inc\xmc_usic.h ****  * \par<b>Related APIs:</b><BR>
 725:C:/Users/lgg/Desktop/hithanbo/dave_ws/lgg_xmc/Libraries/XMCLib/inc\xmc_usic.h ****  * XMC_USIC_CH_ConnectInputDataShiftToDataInput()\n\n\n
 726:C:/Users/lgg/Desktop/hithanbo/dave_ws/lgg_xmc/Libraries/XMCLib/inc\xmc_usic.h ****  */
 727:C:/Users/lgg/Desktop/hithanbo/dave_ws/lgg_xmc/Libraries/XMCLib/inc\xmc_usic.h **** __STATIC_INLINE void XMC_USIC_CH_ConnectInputDataShiftToPPP(XMC_USIC_CH_t *const channel, const XMC
 728:C:/Users/lgg/Desktop/hithanbo/dave_ws/lgg_xmc/Libraries/XMCLib/inc\xmc_usic.h **** {
 729:C:/Users/lgg/Desktop/hithanbo/dave_ws/lgg_xmc/Libraries/XMCLib/inc\xmc_usic.h ****   channel->DXCR[input] &=(uint32_t)~USIC_CH_DXCR_INSW_Msk;
 730:C:/Users/lgg/Desktop/hithanbo/dave_ws/lgg_xmc/Libraries/XMCLib/inc\xmc_usic.h **** }
 731:C:/Users/lgg/Desktop/hithanbo/dave_ws/lgg_xmc/Libraries/XMCLib/inc\xmc_usic.h **** 
 732:C:/Users/lgg/Desktop/hithanbo/dave_ws/lgg_xmc/Libraries/XMCLib/inc\xmc_usic.h **** /**
 733:C:/Users/lgg/Desktop/hithanbo/dave_ws/lgg_xmc/Libraries/XMCLib/inc\xmc_usic.h ****  * @param  channel Pointer to USIC channel handler of type @ref XMC_USIC_CH_t \n
 734:C:/Users/lgg/Desktop/hithanbo/dave_ws/lgg_xmc/Libraries/XMCLib/inc\xmc_usic.h ****  * 				   \b Range: @ref XMC_USIC0_CH0, @ref XMC_USIC0_CH1 to @ref XMC_USIC2_CH1 based on device su
 735:C:/Users/lgg/Desktop/hithanbo/dave_ws/lgg_xmc/Libraries/XMCLib/inc\xmc_usic.h ****  * @param  input USIC channel input stage of type @ref XMC_USIC_CH_INPUT_t. \n
 736:C:/Users/lgg/Desktop/hithanbo/dave_ws/lgg_xmc/Libraries/XMCLib/inc\xmc_usic.h ****  * 				 \b Range: @ref XMC_USIC_CH_INPUT_DX0 to @ref XMC_USIC_CH_INPUT_DX5
 737:C:/Users/lgg/Desktop/hithanbo/dave_ws/lgg_xmc/Libraries/XMCLib/inc\xmc_usic.h ****  * @return None
 738:C:/Users/lgg/Desktop/hithanbo/dave_ws/lgg_xmc/Libraries/XMCLib/inc\xmc_usic.h ****  *
 739:C:/Users/lgg/Desktop/hithanbo/dave_ws/lgg_xmc/Libraries/XMCLib/inc\xmc_usic.h ****  * \par<b>Description</b><br>
 740:C:/Users/lgg/Desktop/hithanbo/dave_ws/lgg_xmc/Libraries/XMCLib/inc\xmc_usic.h ****  * The input of the data shift unit is connected to
 741:C:/Users/lgg/Desktop/hithanbo/dave_ws/lgg_xmc/Libraries/XMCLib/inc\xmc_usic.h ****  * the selected data input line. \n\n
 742:C:/Users/lgg/Desktop/hithanbo/dave_ws/lgg_xmc/Libraries/XMCLib/inc\xmc_usic.h ****  *
 743:C:/Users/lgg/Desktop/hithanbo/dave_ws/lgg_xmc/Libraries/XMCLib/inc\xmc_usic.h ****  * This setting is used
 744:C:/Users/lgg/Desktop/hithanbo/dave_ws/lgg_xmc/Libraries/XMCLib/inc\xmc_usic.h ****  * if the signals are directly derived from an input
 745:C:/Users/lgg/Desktop/hithanbo/dave_ws/lgg_xmc/Libraries/XMCLib/inc\xmc_usic.h ****  * pin without treatment by the protocol preprocessor.
 746:C:/Users/lgg/Desktop/hithanbo/dave_ws/lgg_xmc/Libraries/XMCLib/inc\xmc_usic.h ****  * \par<b>Related APIs:</b><BR>
 747:C:/Users/lgg/Desktop/hithanbo/dave_ws/lgg_xmc/Libraries/XMCLib/inc\xmc_usic.h ****  * XMC_USIC_CH_ConnectInputDataShiftToPPP()\n\n\n
 748:C:/Users/lgg/Desktop/hithanbo/dave_ws/lgg_xmc/Libraries/XMCLib/inc\xmc_usic.h ****  */
 749:C:/Users/lgg/Desktop/hithanbo/dave_ws/lgg_xmc/Libraries/XMCLib/inc\xmc_usic.h **** __STATIC_INLINE void XMC_USIC_CH_ConnectInputDataShiftToDataInput(XMC_USIC_CH_t *const channel, con
 750:C:/Users/lgg/Desktop/hithanbo/dave_ws/lgg_xmc/Libraries/XMCLib/inc\xmc_usic.h **** {
 751:C:/Users/lgg/Desktop/hithanbo/dave_ws/lgg_xmc/Libraries/XMCLib/inc\xmc_usic.h ****   channel->DXCR[input] |= USIC_CH_DXCR_INSW_Msk;
 752:C:/Users/lgg/Desktop/hithanbo/dave_ws/lgg_xmc/Libraries/XMCLib/inc\xmc_usic.h **** }
 753:C:/Users/lgg/Desktop/hithanbo/dave_ws/lgg_xmc/Libraries/XMCLib/inc\xmc_usic.h **** 
 754:C:/Users/lgg/Desktop/hithanbo/dave_ws/lgg_xmc/Libraries/XMCLib/inc\xmc_usic.h **** /**
 755:C:/Users/lgg/Desktop/hithanbo/dave_ws/lgg_xmc/Libraries/XMCLib/inc\xmc_usic.h ****  * @param  channel Pointer to USIC channel handler of type @ref XMC_USIC_CH_t \n
 756:C:/Users/lgg/Desktop/hithanbo/dave_ws/lgg_xmc/Libraries/XMCLib/inc\xmc_usic.h ****  * 				   \b Range: @ref XMC_USIC0_CH0, @ref XMC_USIC0_CH1 to @ref XMC_USIC2_CH1 based on device su
 757:C:/Users/lgg/Desktop/hithanbo/dave_ws/lgg_xmc/Libraries/XMCLib/inc\xmc_usic.h ****  * @param  input USIC channel input stage of type @ref XMC_USIC_CH_INPUT_t. \n
 758:C:/Users/lgg/Desktop/hithanbo/dave_ws/lgg_xmc/Libraries/XMCLib/inc\xmc_usic.h ****  * 				 \b Range: @ref XMC_USIC_CH_INPUT_DX0 to @ref XMC_USIC_CH_INPUT_DX5
 759:C:/Users/lgg/Desktop/hithanbo/dave_ws/lgg_xmc/Libraries/XMCLib/inc\xmc_usic.h ****  * @return None
 760:C:/Users/lgg/Desktop/hithanbo/dave_ws/lgg_xmc/Libraries/XMCLib/inc\xmc_usic.h ****  *
 761:C:/Users/lgg/Desktop/hithanbo/dave_ws/lgg_xmc/Libraries/XMCLib/inc\xmc_usic.h ****  * \par<b>Description</b><br>
 762:C:/Users/lgg/Desktop/hithanbo/dave_ws/lgg_xmc/Libraries/XMCLib/inc\xmc_usic.h ****  * Enables input inversion for USIC channel input data signal. \n\n
 763:C:/Users/lgg/Desktop/hithanbo/dave_ws/lgg_xmc/Libraries/XMCLib/inc\xmc_usic.h ****  *
 764:C:/Users/lgg/Desktop/hithanbo/dave_ws/lgg_xmc/Libraries/XMCLib/inc\xmc_usic.h ****  * Polarity of the input source can be changed to provide inverted data input.
 765:C:/Users/lgg/Desktop/hithanbo/dave_ws/lgg_xmc/Libraries/XMCLib/inc\xmc_usic.h ****  * \par<b>Related APIs:</b><BR>
 766:C:/Users/lgg/Desktop/hithanbo/dave_ws/lgg_xmc/Libraries/XMCLib/inc\xmc_usic.h ****  * XMC_USIC_CH_DisableInputInversion()\n\n\n
 767:C:/Users/lgg/Desktop/hithanbo/dave_ws/lgg_xmc/Libraries/XMCLib/inc\xmc_usic.h ****  */
 768:C:/Users/lgg/Desktop/hithanbo/dave_ws/lgg_xmc/Libraries/XMCLib/inc\xmc_usic.h **** __STATIC_INLINE void XMC_USIC_CH_EnableInputInversion(XMC_USIC_CH_t *const channel, const XMC_USIC_
 769:C:/Users/lgg/Desktop/hithanbo/dave_ws/lgg_xmc/Libraries/XMCLib/inc\xmc_usic.h **** {
 770:C:/Users/lgg/Desktop/hithanbo/dave_ws/lgg_xmc/Libraries/XMCLib/inc\xmc_usic.h ****   channel->DXCR[input] |= USIC_CH_DXCR_DPOL_Msk;
 771:C:/Users/lgg/Desktop/hithanbo/dave_ws/lgg_xmc/Libraries/XMCLib/inc\xmc_usic.h **** }
 772:C:/Users/lgg/Desktop/hithanbo/dave_ws/lgg_xmc/Libraries/XMCLib/inc\xmc_usic.h **** 
 773:C:/Users/lgg/Desktop/hithanbo/dave_ws/lgg_xmc/Libraries/XMCLib/inc\xmc_usic.h **** /**
 774:C:/Users/lgg/Desktop/hithanbo/dave_ws/lgg_xmc/Libraries/XMCLib/inc\xmc_usic.h ****  * @param  channel Pointer to USIC channel handler of type @ref XMC_USIC_CH_t \n
 775:C:/Users/lgg/Desktop/hithanbo/dave_ws/lgg_xmc/Libraries/XMCLib/inc\xmc_usic.h ****  * 				   \b Range: @ref XMC_USIC0_CH0, @ref XMC_USIC0_CH1 to @ref XMC_USIC2_CH1 based on device su
 776:C:/Users/lgg/Desktop/hithanbo/dave_ws/lgg_xmc/Libraries/XMCLib/inc\xmc_usic.h ****  * @param  input USIC channel input stage of type @ref XMC_USIC_CH_INPUT_t. \n
 777:C:/Users/lgg/Desktop/hithanbo/dave_ws/lgg_xmc/Libraries/XMCLib/inc\xmc_usic.h ****  * 				 \b Range: @ref XMC_USIC_CH_INPUT_DX0 to @ref XMC_USIC_CH_INPUT_DX5
 778:C:/Users/lgg/Desktop/hithanbo/dave_ws/lgg_xmc/Libraries/XMCLib/inc\xmc_usic.h ****  * @return None
 779:C:/Users/lgg/Desktop/hithanbo/dave_ws/lgg_xmc/Libraries/XMCLib/inc\xmc_usic.h ****  *
 780:C:/Users/lgg/Desktop/hithanbo/dave_ws/lgg_xmc/Libraries/XMCLib/inc\xmc_usic.h ****  * \par<b>Description</b><br>
 781:C:/Users/lgg/Desktop/hithanbo/dave_ws/lgg_xmc/Libraries/XMCLib/inc\xmc_usic.h ****  * Disables input inversion for USIC channel. \n\n
 782:C:/Users/lgg/Desktop/hithanbo/dave_ws/lgg_xmc/Libraries/XMCLib/inc\xmc_usic.h ****  *
 783:C:/Users/lgg/Desktop/hithanbo/dave_ws/lgg_xmc/Libraries/XMCLib/inc\xmc_usic.h ****  * Resets the input data polarity for the USIC channel input data signal.
 784:C:/Users/lgg/Desktop/hithanbo/dave_ws/lgg_xmc/Libraries/XMCLib/inc\xmc_usic.h ****  * \par<b>Related APIs:</b><BR>
 785:C:/Users/lgg/Desktop/hithanbo/dave_ws/lgg_xmc/Libraries/XMCLib/inc\xmc_usic.h ****  * XMC_USIC_CH_EnableInputInversion()\n\n\n
 786:C:/Users/lgg/Desktop/hithanbo/dave_ws/lgg_xmc/Libraries/XMCLib/inc\xmc_usic.h ****  */
 787:C:/Users/lgg/Desktop/hithanbo/dave_ws/lgg_xmc/Libraries/XMCLib/inc\xmc_usic.h **** __STATIC_INLINE void XMC_USIC_CH_DisableInputInversion(XMC_USIC_CH_t *const channel, const XMC_USIC
 788:C:/Users/lgg/Desktop/hithanbo/dave_ws/lgg_xmc/Libraries/XMCLib/inc\xmc_usic.h **** {
 789:C:/Users/lgg/Desktop/hithanbo/dave_ws/lgg_xmc/Libraries/XMCLib/inc\xmc_usic.h ****   channel->DXCR[input] &=(uint32_t)~USIC_CH_DXCR_DPOL_Msk;
 790:C:/Users/lgg/Desktop/hithanbo/dave_ws/lgg_xmc/Libraries/XMCLib/inc\xmc_usic.h **** }
 791:C:/Users/lgg/Desktop/hithanbo/dave_ws/lgg_xmc/Libraries/XMCLib/inc\xmc_usic.h **** 
 792:C:/Users/lgg/Desktop/hithanbo/dave_ws/lgg_xmc/Libraries/XMCLib/inc\xmc_usic.h **** /**
 793:C:/Users/lgg/Desktop/hithanbo/dave_ws/lgg_xmc/Libraries/XMCLib/inc\xmc_usic.h ****  * @param  channel Pointer to USIC channel handler of type @ref XMC_USIC_CH_t \n
 794:C:/Users/lgg/Desktop/hithanbo/dave_ws/lgg_xmc/Libraries/XMCLib/inc\xmc_usic.h ****  * 				   \b Range: @ref XMC_USIC0_CH0, @ref XMC_USIC0_CH1 to @ref XMC_USIC2_CH1 based on device su
 795:C:/Users/lgg/Desktop/hithanbo/dave_ws/lgg_xmc/Libraries/XMCLib/inc\xmc_usic.h ****  * @return None
 796:C:/Users/lgg/Desktop/hithanbo/dave_ws/lgg_xmc/Libraries/XMCLib/inc\xmc_usic.h ****  *
 797:C:/Users/lgg/Desktop/hithanbo/dave_ws/lgg_xmc/Libraries/XMCLib/inc\xmc_usic.h ****  * \par<b>Description</b><br>
 798:C:/Users/lgg/Desktop/hithanbo/dave_ws/lgg_xmc/Libraries/XMCLib/inc\xmc_usic.h ****  * Enables delay compensation. \n\n
 799:C:/Users/lgg/Desktop/hithanbo/dave_ws/lgg_xmc/Libraries/XMCLib/inc\xmc_usic.h ****  *
 800:C:/Users/lgg/Desktop/hithanbo/dave_ws/lgg_xmc/Libraries/XMCLib/inc\xmc_usic.h ****  * Delay compensation can be applied to the receive path.
 801:C:/Users/lgg/Desktop/hithanbo/dave_ws/lgg_xmc/Libraries/XMCLib/inc\xmc_usic.h ****  * \par<b>Related APIs:</b><BR>
 802:C:/Users/lgg/Desktop/hithanbo/dave_ws/lgg_xmc/Libraries/XMCLib/inc\xmc_usic.h ****  * XMC_USIC_CH_DisableDelayCompensation()\n\n\n
 803:C:/Users/lgg/Desktop/hithanbo/dave_ws/lgg_xmc/Libraries/XMCLib/inc\xmc_usic.h ****  */
 804:C:/Users/lgg/Desktop/hithanbo/dave_ws/lgg_xmc/Libraries/XMCLib/inc\xmc_usic.h **** __STATIC_INLINE void XMC_USIC_CH_EnableDelayCompensation(XMC_USIC_CH_t *const channel)
 805:C:/Users/lgg/Desktop/hithanbo/dave_ws/lgg_xmc/Libraries/XMCLib/inc\xmc_usic.h **** {
 806:C:/Users/lgg/Desktop/hithanbo/dave_ws/lgg_xmc/Libraries/XMCLib/inc\xmc_usic.h ****   channel->DXCR[1U] |= USIC_CH_DX1CR_DCEN_Msk;
 807:C:/Users/lgg/Desktop/hithanbo/dave_ws/lgg_xmc/Libraries/XMCLib/inc\xmc_usic.h **** }
 808:C:/Users/lgg/Desktop/hithanbo/dave_ws/lgg_xmc/Libraries/XMCLib/inc\xmc_usic.h **** 
 809:C:/Users/lgg/Desktop/hithanbo/dave_ws/lgg_xmc/Libraries/XMCLib/inc\xmc_usic.h **** /**
 810:C:/Users/lgg/Desktop/hithanbo/dave_ws/lgg_xmc/Libraries/XMCLib/inc\xmc_usic.h ****  * @param  channel Pointer to USIC channel handler of type @ref XMC_USIC_CH_t \n
 811:C:/Users/lgg/Desktop/hithanbo/dave_ws/lgg_xmc/Libraries/XMCLib/inc\xmc_usic.h ****  * 				   \b Range: @ref XMC_USIC0_CH0, @ref XMC_USIC0_CH1 to @ref XMC_USIC2_CH1 based on device su
 812:C:/Users/lgg/Desktop/hithanbo/dave_ws/lgg_xmc/Libraries/XMCLib/inc\xmc_usic.h ****  * @return None
 813:C:/Users/lgg/Desktop/hithanbo/dave_ws/lgg_xmc/Libraries/XMCLib/inc\xmc_usic.h ****  *
 814:C:/Users/lgg/Desktop/hithanbo/dave_ws/lgg_xmc/Libraries/XMCLib/inc\xmc_usic.h ****  * \par<b>Description</b><br>
 815:C:/Users/lgg/Desktop/hithanbo/dave_ws/lgg_xmc/Libraries/XMCLib/inc\xmc_usic.h ****  * Disables delay compensation.. \n\n
 816:C:/Users/lgg/Desktop/hithanbo/dave_ws/lgg_xmc/Libraries/XMCLib/inc\xmc_usic.h ****  *
 817:C:/Users/lgg/Desktop/hithanbo/dave_ws/lgg_xmc/Libraries/XMCLib/inc\xmc_usic.h ****  * \par<b>Related APIs:</b><BR>
 818:C:/Users/lgg/Desktop/hithanbo/dave_ws/lgg_xmc/Libraries/XMCLib/inc\xmc_usic.h ****  * XMC_USIC_CH_EnableDelayCompensation()\n\n\n
 819:C:/Users/lgg/Desktop/hithanbo/dave_ws/lgg_xmc/Libraries/XMCLib/inc\xmc_usic.h ****  */
 820:C:/Users/lgg/Desktop/hithanbo/dave_ws/lgg_xmc/Libraries/XMCLib/inc\xmc_usic.h **** __STATIC_INLINE void XMC_USIC_CH_DisableDelayCompensation(XMC_USIC_CH_t *const channel)
 821:C:/Users/lgg/Desktop/hithanbo/dave_ws/lgg_xmc/Libraries/XMCLib/inc\xmc_usic.h **** {
 822:C:/Users/lgg/Desktop/hithanbo/dave_ws/lgg_xmc/Libraries/XMCLib/inc\xmc_usic.h ****   channel->DXCR[1U] &=(uint32_t)~USIC_CH_DX1CR_DCEN_Msk;
 823:C:/Users/lgg/Desktop/hithanbo/dave_ws/lgg_xmc/Libraries/XMCLib/inc\xmc_usic.h **** }
 824:C:/Users/lgg/Desktop/hithanbo/dave_ws/lgg_xmc/Libraries/XMCLib/inc\xmc_usic.h **** 
 825:C:/Users/lgg/Desktop/hithanbo/dave_ws/lgg_xmc/Libraries/XMCLib/inc\xmc_usic.h **** /**
 826:C:/Users/lgg/Desktop/hithanbo/dave_ws/lgg_xmc/Libraries/XMCLib/inc\xmc_usic.h ****  * @param  channel Pointer to USIC channel handler of type @ref XMC_USIC_CH_t \n
 827:C:/Users/lgg/Desktop/hithanbo/dave_ws/lgg_xmc/Libraries/XMCLib/inc\xmc_usic.h ****  * 				   \b Range: @ref XMC_USIC0_CH0, @ref XMC_USIC0_CH1 to @ref XMC_USIC2_CH1 based on device su
 828:C:/Users/lgg/Desktop/hithanbo/dave_ws/lgg_xmc/Libraries/XMCLib/inc\xmc_usic.h ****  * @param  input USIC channel input stage of type @ref XMC_USIC_CH_INPUT_t. \n
 829:C:/Users/lgg/Desktop/hithanbo/dave_ws/lgg_xmc/Libraries/XMCLib/inc\xmc_usic.h ****  * 				 \b Range: @ref XMC_USIC_CH_INPUT_DX0 to @ref XMC_USIC_CH_INPUT_DX5
 830:C:/Users/lgg/Desktop/hithanbo/dave_ws/lgg_xmc/Libraries/XMCLib/inc\xmc_usic.h ****  * @return None
 831:C:/Users/lgg/Desktop/hithanbo/dave_ws/lgg_xmc/Libraries/XMCLib/inc\xmc_usic.h ****  *
 832:C:/Users/lgg/Desktop/hithanbo/dave_ws/lgg_xmc/Libraries/XMCLib/inc\xmc_usic.h ****  * \par<b>Description</b><br>
 833:C:/Users/lgg/Desktop/hithanbo/dave_ws/lgg_xmc/Libraries/XMCLib/inc\xmc_usic.h ****  * Enables the input digital filter for USIC channel input data signal. \n\n
 834:C:/Users/lgg/Desktop/hithanbo/dave_ws/lgg_xmc/Libraries/XMCLib/inc\xmc_usic.h ****  * Input data signal from the selected multiplexer will be digitally filtered.
 835:C:/Users/lgg/Desktop/hithanbo/dave_ws/lgg_xmc/Libraries/XMCLib/inc\xmc_usic.h ****  *
 836:C:/Users/lgg/Desktop/hithanbo/dave_ws/lgg_xmc/Libraries/XMCLib/inc\xmc_usic.h ****  * \par<b>Related APIs:</b><BR>
 837:C:/Users/lgg/Desktop/hithanbo/dave_ws/lgg_xmc/Libraries/XMCLib/inc\xmc_usic.h ****  * XMC_USIC_CH_DisableInputDigitalFilter()\n\n\n
 838:C:/Users/lgg/Desktop/hithanbo/dave_ws/lgg_xmc/Libraries/XMCLib/inc\xmc_usic.h ****  */
 839:C:/Users/lgg/Desktop/hithanbo/dave_ws/lgg_xmc/Libraries/XMCLib/inc\xmc_usic.h **** __STATIC_INLINE void XMC_USIC_CH_EnableInputDigitalFilter(XMC_USIC_CH_t *const channel, const XMC_U
 840:C:/Users/lgg/Desktop/hithanbo/dave_ws/lgg_xmc/Libraries/XMCLib/inc\xmc_usic.h **** {
 841:C:/Users/lgg/Desktop/hithanbo/dave_ws/lgg_xmc/Libraries/XMCLib/inc\xmc_usic.h ****   channel->DXCR[input] |= (uint32_t)USIC_CH_DXCR_DFEN_Msk;
 842:C:/Users/lgg/Desktop/hithanbo/dave_ws/lgg_xmc/Libraries/XMCLib/inc\xmc_usic.h **** }
 843:C:/Users/lgg/Desktop/hithanbo/dave_ws/lgg_xmc/Libraries/XMCLib/inc\xmc_usic.h **** /**
 844:C:/Users/lgg/Desktop/hithanbo/dave_ws/lgg_xmc/Libraries/XMCLib/inc\xmc_usic.h ****  * @param  channel Pointer to USIC channel handler of type @ref XMC_USIC_CH_t \n
 845:C:/Users/lgg/Desktop/hithanbo/dave_ws/lgg_xmc/Libraries/XMCLib/inc\xmc_usic.h ****  * 				   \b Range: @ref XMC_USIC0_CH0, @ref XMC_USIC0_CH1 to @ref XMC_USIC2_CH1 based on device su
 846:C:/Users/lgg/Desktop/hithanbo/dave_ws/lgg_xmc/Libraries/XMCLib/inc\xmc_usic.h ****  * @param  input USIC channel input stage of type @ref XMC_USIC_CH_INPUT_t. \n
 847:C:/Users/lgg/Desktop/hithanbo/dave_ws/lgg_xmc/Libraries/XMCLib/inc\xmc_usic.h ****  * 				 \b Range: @ref XMC_USIC_CH_INPUT_DX0 to @ref XMC_USIC_CH_INPUT_DX5
 848:C:/Users/lgg/Desktop/hithanbo/dave_ws/lgg_xmc/Libraries/XMCLib/inc\xmc_usic.h ****  * @return None
 849:C:/Users/lgg/Desktop/hithanbo/dave_ws/lgg_xmc/Libraries/XMCLib/inc\xmc_usic.h ****  *
 850:C:/Users/lgg/Desktop/hithanbo/dave_ws/lgg_xmc/Libraries/XMCLib/inc\xmc_usic.h ****  * \par<b>Description</b><br>
 851:C:/Users/lgg/Desktop/hithanbo/dave_ws/lgg_xmc/Libraries/XMCLib/inc\xmc_usic.h ****  * Disables the input digital filter for USIC channel input data signal. \n\n
 852:C:/Users/lgg/Desktop/hithanbo/dave_ws/lgg_xmc/Libraries/XMCLib/inc\xmc_usic.h ****  * Input data signal from the selected multiplexer will not be digitally filtered.
 853:C:/Users/lgg/Desktop/hithanbo/dave_ws/lgg_xmc/Libraries/XMCLib/inc\xmc_usic.h ****  *
 854:C:/Users/lgg/Desktop/hithanbo/dave_ws/lgg_xmc/Libraries/XMCLib/inc\xmc_usic.h ****  * \par<b>Related APIs:</b><BR>
 855:C:/Users/lgg/Desktop/hithanbo/dave_ws/lgg_xmc/Libraries/XMCLib/inc\xmc_usic.h ****  * XMC_USIC_CH_EnableInputDigitalFilter()\n\n\n
 856:C:/Users/lgg/Desktop/hithanbo/dave_ws/lgg_xmc/Libraries/XMCLib/inc\xmc_usic.h ****  */
 857:C:/Users/lgg/Desktop/hithanbo/dave_ws/lgg_xmc/Libraries/XMCLib/inc\xmc_usic.h **** __STATIC_INLINE void XMC_USIC_CH_DisableInputDigitalFilter(XMC_USIC_CH_t *const channel, const XMC_
 858:C:/Users/lgg/Desktop/hithanbo/dave_ws/lgg_xmc/Libraries/XMCLib/inc\xmc_usic.h **** {
 859:C:/Users/lgg/Desktop/hithanbo/dave_ws/lgg_xmc/Libraries/XMCLib/inc\xmc_usic.h ****   channel->DXCR[input] &=(uint32_t)~USIC_CH_DXCR_DFEN_Msk;
 860:C:/Users/lgg/Desktop/hithanbo/dave_ws/lgg_xmc/Libraries/XMCLib/inc\xmc_usic.h **** }
 861:C:/Users/lgg/Desktop/hithanbo/dave_ws/lgg_xmc/Libraries/XMCLib/inc\xmc_usic.h **** /**
 862:C:/Users/lgg/Desktop/hithanbo/dave_ws/lgg_xmc/Libraries/XMCLib/inc\xmc_usic.h ****  * @param  channel Pointer to USIC channel handler of type @ref XMC_USIC_CH_t \n
 863:C:/Users/lgg/Desktop/hithanbo/dave_ws/lgg_xmc/Libraries/XMCLib/inc\xmc_usic.h ****  * 				   \b Range: @ref XMC_USIC0_CH0, @ref XMC_USIC0_CH1 to @ref XMC_USIC2_CH1 based on device su
 864:C:/Users/lgg/Desktop/hithanbo/dave_ws/lgg_xmc/Libraries/XMCLib/inc\xmc_usic.h ****  * @param  input USIC channel input stage of type @ref XMC_USIC_CH_INPUT_t. \n
 865:C:/Users/lgg/Desktop/hithanbo/dave_ws/lgg_xmc/Libraries/XMCLib/inc\xmc_usic.h ****  * 				 \b Range: @ref XMC_USIC_CH_INPUT_DX0 to @ref XMC_USIC_CH_INPUT_DX5
 866:C:/Users/lgg/Desktop/hithanbo/dave_ws/lgg_xmc/Libraries/XMCLib/inc\xmc_usic.h ****  * @return None
 867:C:/Users/lgg/Desktop/hithanbo/dave_ws/lgg_xmc/Libraries/XMCLib/inc\xmc_usic.h ****  *
 868:C:/Users/lgg/Desktop/hithanbo/dave_ws/lgg_xmc/Libraries/XMCLib/inc\xmc_usic.h ****  * \par<b>Description</b><br>
 869:C:/Users/lgg/Desktop/hithanbo/dave_ws/lgg_xmc/Libraries/XMCLib/inc\xmc_usic.h ****  * Enables input synchronization for the USIC channel input data signal. \n\n
 870:C:/Users/lgg/Desktop/hithanbo/dave_ws/lgg_xmc/Libraries/XMCLib/inc\xmc_usic.h ****  * Input data signal from the selected multiplexer will be synchronized with fPERIPH.
 871:C:/Users/lgg/Desktop/hithanbo/dave_ws/lgg_xmc/Libraries/XMCLib/inc\xmc_usic.h ****  * A noisy signal can be synchronized and filtered by enabling the digital filter.
 872:C:/Users/lgg/Desktop/hithanbo/dave_ws/lgg_xmc/Libraries/XMCLib/inc\xmc_usic.h ****  *
 873:C:/Users/lgg/Desktop/hithanbo/dave_ws/lgg_xmc/Libraries/XMCLib/inc\xmc_usic.h ****  * \par<b>Related APIs:</b><BR>
 874:C:/Users/lgg/Desktop/hithanbo/dave_ws/lgg_xmc/Libraries/XMCLib/inc\xmc_usic.h ****  * XMC_USIC_CH_DisableInputSync(), XMC_USIC_CH_EnableInputDigitalFilter()\n\n\n
 875:C:/Users/lgg/Desktop/hithanbo/dave_ws/lgg_xmc/Libraries/XMCLib/inc\xmc_usic.h ****  */
 876:C:/Users/lgg/Desktop/hithanbo/dave_ws/lgg_xmc/Libraries/XMCLib/inc\xmc_usic.h **** __STATIC_INLINE void XMC_USIC_CH_EnableInputSync(XMC_USIC_CH_t *const channel, const XMC_USIC_CH_IN
 877:C:/Users/lgg/Desktop/hithanbo/dave_ws/lgg_xmc/Libraries/XMCLib/inc\xmc_usic.h **** {
 878:C:/Users/lgg/Desktop/hithanbo/dave_ws/lgg_xmc/Libraries/XMCLib/inc\xmc_usic.h ****   channel->DXCR[input] |=(uint32_t)USIC_CH_DXCR_DSEN_Msk;
 879:C:/Users/lgg/Desktop/hithanbo/dave_ws/lgg_xmc/Libraries/XMCLib/inc\xmc_usic.h **** }
 880:C:/Users/lgg/Desktop/hithanbo/dave_ws/lgg_xmc/Libraries/XMCLib/inc\xmc_usic.h **** /**
 881:C:/Users/lgg/Desktop/hithanbo/dave_ws/lgg_xmc/Libraries/XMCLib/inc\xmc_usic.h ****  * @param  channel Pointer to USIC channel handler of type @ref XMC_USIC_CH_t \n
 882:C:/Users/lgg/Desktop/hithanbo/dave_ws/lgg_xmc/Libraries/XMCLib/inc\xmc_usic.h ****  * 				   \b Range: @ref XMC_USIC0_CH0, @ref XMC_USIC0_CH1 to @ref XMC_USIC2_CH1 based on device su
 883:C:/Users/lgg/Desktop/hithanbo/dave_ws/lgg_xmc/Libraries/XMCLib/inc\xmc_usic.h ****  * @param  input USIC channel input stage of type @ref XMC_USIC_CH_INPUT_t. \n
 884:C:/Users/lgg/Desktop/hithanbo/dave_ws/lgg_xmc/Libraries/XMCLib/inc\xmc_usic.h ****  * 				 \b Range: @ref XMC_USIC_CH_INPUT_DX0 to @ref XMC_USIC_CH_INPUT_DX5
 885:C:/Users/lgg/Desktop/hithanbo/dave_ws/lgg_xmc/Libraries/XMCLib/inc\xmc_usic.h ****  * @return None
 886:C:/Users/lgg/Desktop/hithanbo/dave_ws/lgg_xmc/Libraries/XMCLib/inc\xmc_usic.h ****  *
 887:C:/Users/lgg/Desktop/hithanbo/dave_ws/lgg_xmc/Libraries/XMCLib/inc\xmc_usic.h ****  * \par<b>Description</b><br>
 888:C:/Users/lgg/Desktop/hithanbo/dave_ws/lgg_xmc/Libraries/XMCLib/inc\xmc_usic.h ****  * Disables input synchronization for the USIC channel input data signal. \n\n
 889:C:/Users/lgg/Desktop/hithanbo/dave_ws/lgg_xmc/Libraries/XMCLib/inc\xmc_usic.h ****  * Input data signal from the selected multiplexer will not be synchronized.
 890:C:/Users/lgg/Desktop/hithanbo/dave_ws/lgg_xmc/Libraries/XMCLib/inc\xmc_usic.h ****  *
 891:C:/Users/lgg/Desktop/hithanbo/dave_ws/lgg_xmc/Libraries/XMCLib/inc\xmc_usic.h ****  * \par<b>Related APIs:</b><BR>
 892:C:/Users/lgg/Desktop/hithanbo/dave_ws/lgg_xmc/Libraries/XMCLib/inc\xmc_usic.h ****  * XMC_USIC_CH_EnableInputSync(), XMC_USIC_CH_DisableInputDigitalFilter() \n\n\n
 893:C:/Users/lgg/Desktop/hithanbo/dave_ws/lgg_xmc/Libraries/XMCLib/inc\xmc_usic.h ****  */
 894:C:/Users/lgg/Desktop/hithanbo/dave_ws/lgg_xmc/Libraries/XMCLib/inc\xmc_usic.h **** __STATIC_INLINE void XMC_USIC_CH_DisableInputSync(XMC_USIC_CH_t *const channel, const XMC_USIC_CH_I
 895:C:/Users/lgg/Desktop/hithanbo/dave_ws/lgg_xmc/Libraries/XMCLib/inc\xmc_usic.h **** {
 896:C:/Users/lgg/Desktop/hithanbo/dave_ws/lgg_xmc/Libraries/XMCLib/inc\xmc_usic.h ****   channel->DXCR[input] &=(uint32_t)~USIC_CH_DXCR_DSEN_Msk;
 897:C:/Users/lgg/Desktop/hithanbo/dave_ws/lgg_xmc/Libraries/XMCLib/inc\xmc_usic.h **** }
 898:C:/Users/lgg/Desktop/hithanbo/dave_ws/lgg_xmc/Libraries/XMCLib/inc\xmc_usic.h **** /**
 899:C:/Users/lgg/Desktop/hithanbo/dave_ws/lgg_xmc/Libraries/XMCLib/inc\xmc_usic.h ****  * @param  channel Pointer to USIC channel handler of type @ref XMC_USIC_CH_t \n
 900:C:/Users/lgg/Desktop/hithanbo/dave_ws/lgg_xmc/Libraries/XMCLib/inc\xmc_usic.h ****  * 				   \b Range: @ref XMC_USIC0_CH0, @ref XMC_USIC0_CH1 to @ref XMC_USIC2_CH1 based on device su
 901:C:/Users/lgg/Desktop/hithanbo/dave_ws/lgg_xmc/Libraries/XMCLib/inc\xmc_usic.h ****  * @param  input USIC channel input stage of type @ref XMC_USIC_CH_INPUT_t. \n
 902:C:/Users/lgg/Desktop/hithanbo/dave_ws/lgg_xmc/Libraries/XMCLib/inc\xmc_usic.h ****  * 				 \b Range: @ref XMC_USIC_CH_INPUT_DX0 to @ref XMC_USIC_CH_INPUT_DX5
 903:C:/Users/lgg/Desktop/hithanbo/dave_ws/lgg_xmc/Libraries/XMCLib/inc\xmc_usic.h ****  * @param  sampling_freq Sampling frequency value of type \a XMC_USIC_CH_INPUT_SAMPLING_FREQ_t.
 904:C:/Users/lgg/Desktop/hithanbo/dave_ws/lgg_xmc/Libraries/XMCLib/inc\xmc_usic.h ****  * @return None
 905:C:/Users/lgg/Desktop/hithanbo/dave_ws/lgg_xmc/Libraries/XMCLib/inc\xmc_usic.h ****  *
 906:C:/Users/lgg/Desktop/hithanbo/dave_ws/lgg_xmc/Libraries/XMCLib/inc\xmc_usic.h ****  * \par<b>Description</b><br>
 907:C:/Users/lgg/Desktop/hithanbo/dave_ws/lgg_xmc/Libraries/XMCLib/inc\xmc_usic.h ****  * Sets sampling frequency for USIC channel input data signal. \n\n
 908:C:/Users/lgg/Desktop/hithanbo/dave_ws/lgg_xmc/Libraries/XMCLib/inc\xmc_usic.h ****  *
 909:C:/Users/lgg/Desktop/hithanbo/dave_ws/lgg_xmc/Libraries/XMCLib/inc\xmc_usic.h ****  * \par<b>Related APIs:</b><BR>
 910:C:/Users/lgg/Desktop/hithanbo/dave_ws/lgg_xmc/Libraries/XMCLib/inc\xmc_usic.h ****  * XMC_USIC_CH_SetInputSource(), XMC_USIC_CH_EnableInputSync(), XMC_USIC_CH_EnableInputDigitalFilte
 911:C:/Users/lgg/Desktop/hithanbo/dave_ws/lgg_xmc/Libraries/XMCLib/inc\xmc_usic.h ****  */
 912:C:/Users/lgg/Desktop/hithanbo/dave_ws/lgg_xmc/Libraries/XMCLib/inc\xmc_usic.h **** __STATIC_INLINE void XMC_USIC_CH_SetInputSamplingFreq(XMC_USIC_CH_t *const channel,
 913:C:/Users/lgg/Desktop/hithanbo/dave_ws/lgg_xmc/Libraries/XMCLib/inc\xmc_usic.h **** 		                                              const XMC_USIC_CH_INPUT_t input,
 914:C:/Users/lgg/Desktop/hithanbo/dave_ws/lgg_xmc/Libraries/XMCLib/inc\xmc_usic.h **** 		                                              const XMC_USIC_CH_INPUT_SAMPLING_FREQ_t sampling_fr
 915:C:/Users/lgg/Desktop/hithanbo/dave_ws/lgg_xmc/Libraries/XMCLib/inc\xmc_usic.h **** {
 916:C:/Users/lgg/Desktop/hithanbo/dave_ws/lgg_xmc/Libraries/XMCLib/inc\xmc_usic.h ****   channel->DXCR[input] = (uint32_t)(channel->DXCR[input] & (~USIC_CH_DXCR_SFSEL_Msk)) |
 917:C:/Users/lgg/Desktop/hithanbo/dave_ws/lgg_xmc/Libraries/XMCLib/inc\xmc_usic.h ****                          ((uint32_t)sampling_freq);
 918:C:/Users/lgg/Desktop/hithanbo/dave_ws/lgg_xmc/Libraries/XMCLib/inc\xmc_usic.h **** }
 919:C:/Users/lgg/Desktop/hithanbo/dave_ws/lgg_xmc/Libraries/XMCLib/inc\xmc_usic.h **** 
 920:C:/Users/lgg/Desktop/hithanbo/dave_ws/lgg_xmc/Libraries/XMCLib/inc\xmc_usic.h **** /**
 921:C:/Users/lgg/Desktop/hithanbo/dave_ws/lgg_xmc/Libraries/XMCLib/inc\xmc_usic.h ****  * @param  channel Pointer to USIC channel handler of type @ref XMC_USIC_CH_t \n
 922:C:/Users/lgg/Desktop/hithanbo/dave_ws/lgg_xmc/Libraries/XMCLib/inc\xmc_usic.h ****  * 				   \b Range: @ref XMC_USIC0_CH0, @ref XMC_USIC0_CH1 to @ref XMC_USIC2_CH1 based on device su
 923:C:/Users/lgg/Desktop/hithanbo/dave_ws/lgg_xmc/Libraries/XMCLib/inc\xmc_usic.h ****  * @param  input USIC channel input stage of type @ref XMC_USIC_CH_INPUT_t. \n
 924:C:/Users/lgg/Desktop/hithanbo/dave_ws/lgg_xmc/Libraries/XMCLib/inc\xmc_usic.h ****  * 				 \b Range: @ref XMC_USIC_CH_INPUT_DX0 to @ref XMC_USIC_CH_INPUT_DX5
 925:C:/Users/lgg/Desktop/hithanbo/dave_ws/lgg_xmc/Libraries/XMCLib/inc\xmc_usic.h ****  * @param  combination_mode Combination mode value of type \a XMC_USIC_CH_INPUT_COMBINATION_MODE_t.
 926:C:/Users/lgg/Desktop/hithanbo/dave_ws/lgg_xmc/Libraries/XMCLib/inc\xmc_usic.h ****  * @return None
 927:C:/Users/lgg/Desktop/hithanbo/dave_ws/lgg_xmc/Libraries/XMCLib/inc\xmc_usic.h ****  *
 928:C:/Users/lgg/Desktop/hithanbo/dave_ws/lgg_xmc/Libraries/XMCLib/inc\xmc_usic.h ****  * \par<b>Description</b><br>
 929:C:/Users/lgg/Desktop/hithanbo/dave_ws/lgg_xmc/Libraries/XMCLib/inc\xmc_usic.h ****  * Selects which edge of the synchronized signal DXnS activates the trigger output DXnT of the inpu
 930:C:/Users/lgg/Desktop/hithanbo/dave_ws/lgg_xmc/Libraries/XMCLib/inc\xmc_usic.h ****  *
 931:C:/Users/lgg/Desktop/hithanbo/dave_ws/lgg_xmc/Libraries/XMCLib/inc\xmc_usic.h ****  * \par<b>Related APIs:</b><BR>
 932:C:/Users/lgg/Desktop/hithanbo/dave_ws/lgg_xmc/Libraries/XMCLib/inc\xmc_usic.h ****  * XMC_USIC_CH_SetInputSource(), XMC_USIC_CH_EnableInputSync(), XMC_USIC_CH_EnableInputDigitalFilte
 933:C:/Users/lgg/Desktop/hithanbo/dave_ws/lgg_xmc/Libraries/XMCLib/inc\xmc_usic.h ****  */
 934:C:/Users/lgg/Desktop/hithanbo/dave_ws/lgg_xmc/Libraries/XMCLib/inc\xmc_usic.h **** __STATIC_INLINE void XMC_USIC_CH_SetInputTriggerCombinationMode(XMC_USIC_CH_t *const channel,
 935:C:/Users/lgg/Desktop/hithanbo/dave_ws/lgg_xmc/Libraries/XMCLib/inc\xmc_usic.h **** 		                                                        const XMC_USIC_CH_INPUT_t input,
 936:C:/Users/lgg/Desktop/hithanbo/dave_ws/lgg_xmc/Libraries/XMCLib/inc\xmc_usic.h **** 		                                                        const XMC_USIC_CH_INPUT_COMBINATION_MODE_
 937:C:/Users/lgg/Desktop/hithanbo/dave_ws/lgg_xmc/Libraries/XMCLib/inc\xmc_usic.h **** {
 938:C:/Users/lgg/Desktop/hithanbo/dave_ws/lgg_xmc/Libraries/XMCLib/inc\xmc_usic.h ****   channel->DXCR[input] = (uint32_t)(channel->DXCR[input] & (~USIC_CH_DXCR_CM_Msk)) |
 939:C:/Users/lgg/Desktop/hithanbo/dave_ws/lgg_xmc/Libraries/XMCLib/inc\xmc_usic.h ****                          ((uint32_t)combination_mode << USIC_CH_DXCR_CM_Pos);
 940:C:/Users/lgg/Desktop/hithanbo/dave_ws/lgg_xmc/Libraries/XMCLib/inc\xmc_usic.h **** }
 941:C:/Users/lgg/Desktop/hithanbo/dave_ws/lgg_xmc/Libraries/XMCLib/inc\xmc_usic.h **** 
 942:C:/Users/lgg/Desktop/hithanbo/dave_ws/lgg_xmc/Libraries/XMCLib/inc\xmc_usic.h **** /**
 943:C:/Users/lgg/Desktop/hithanbo/dave_ws/lgg_xmc/Libraries/XMCLib/inc\xmc_usic.h ****  * @param  channel Pointer to USIC channel handler of type @ref XMC_USIC_CH_t \n
 944:C:/Users/lgg/Desktop/hithanbo/dave_ws/lgg_xmc/Libraries/XMCLib/inc\xmc_usic.h ****  * 				   \b Range: @ref XMC_USIC0_CH0, @ref XMC_USIC0_CH1 to @ref XMC_USIC2_CH1 based on device su
 945:C:/Users/lgg/Desktop/hithanbo/dave_ws/lgg_xmc/Libraries/XMCLib/inc\xmc_usic.h ****  * @param  clock_source clock source for the BRG.
 946:C:/Users/lgg/Desktop/hithanbo/dave_ws/lgg_xmc/Libraries/XMCLib/inc\xmc_usic.h ****  * @return None
 947:C:/Users/lgg/Desktop/hithanbo/dave_ws/lgg_xmc/Libraries/XMCLib/inc\xmc_usic.h ****  *
 948:C:/Users/lgg/Desktop/hithanbo/dave_ws/lgg_xmc/Libraries/XMCLib/inc\xmc_usic.h ****  * \par<b>Description</b><br>
 949:C:/Users/lgg/Desktop/hithanbo/dave_ws/lgg_xmc/Libraries/XMCLib/inc\xmc_usic.h ****  * Sets the clock source for the BRG. \n\n
 950:C:/Users/lgg/Desktop/hithanbo/dave_ws/lgg_xmc/Libraries/XMCLib/inc\xmc_usic.h ****  *
 951:C:/Users/lgg/Desktop/hithanbo/dave_ws/lgg_xmc/Libraries/XMCLib/inc\xmc_usic.h ****  * \par<b>Related APIs:</b><BR>
 952:C:/Users/lgg/Desktop/hithanbo/dave_ws/lgg_xmc/Libraries/XMCLib/inc\xmc_usic.h ****  * XMC_USIC_CH_SetInputTriggerCombinationMode(), XMC_USIC_CH_SetExternalClockBRGDivider()\n\n\n
 953:C:/Users/lgg/Desktop/hithanbo/dave_ws/lgg_xmc/Libraries/XMCLib/inc\xmc_usic.h ****  */
 954:C:/Users/lgg/Desktop/hithanbo/dave_ws/lgg_xmc/Libraries/XMCLib/inc\xmc_usic.h **** __STATIC_INLINE void XMC_USIC_CH_SetBRGInputClockSource(XMC_USIC_CH_t *const channel, const XMC_USI
 955:C:/Users/lgg/Desktop/hithanbo/dave_ws/lgg_xmc/Libraries/XMCLib/inc\xmc_usic.h **** {
 956:C:/Users/lgg/Desktop/hithanbo/dave_ws/lgg_xmc/Libraries/XMCLib/inc\xmc_usic.h ****   channel->BRG = (uint32_t)(channel->BRG & (~USIC_CH_BRG_CLKSEL_Msk)) | (uint32_t)(clock_source);
 957:C:/Users/lgg/Desktop/hithanbo/dave_ws/lgg_xmc/Libraries/XMCLib/inc\xmc_usic.h **** }
 958:C:/Users/lgg/Desktop/hithanbo/dave_ws/lgg_xmc/Libraries/XMCLib/inc\xmc_usic.h **** 
 959:C:/Users/lgg/Desktop/hithanbo/dave_ws/lgg_xmc/Libraries/XMCLib/inc\xmc_usic.h **** /**
 960:C:/Users/lgg/Desktop/hithanbo/dave_ws/lgg_xmc/Libraries/XMCLib/inc\xmc_usic.h ****  * @param channel Pointer to USIC channel handler of type @ref XMC_USIC_CH_t \n
 961:C:/Users/lgg/Desktop/hithanbo/dave_ws/lgg_xmc/Libraries/XMCLib/inc\xmc_usic.h ****  * 				   \b Range: @ref XMC_USIC0_CH0, @ref XMC_USIC0_CH1 to @ref XMC_USIC2_CH1 based on device su
 962:C:/Users/lgg/Desktop/hithanbo/dave_ws/lgg_xmc/Libraries/XMCLib/inc\xmc_usic.h ****  * @param data Data to be transmitted. \n
 963:C:/Users/lgg/Desktop/hithanbo/dave_ws/lgg_xmc/Libraries/XMCLib/inc\xmc_usic.h ****  *           \b Range: 16bit unsigned data. minimum= 0, maximum= 65535
 964:C:/Users/lgg/Desktop/hithanbo/dave_ws/lgg_xmc/Libraries/XMCLib/inc\xmc_usic.h ****  * @return None
 965:C:/Users/lgg/Desktop/hithanbo/dave_ws/lgg_xmc/Libraries/XMCLib/inc\xmc_usic.h ****  *
 966:C:/Users/lgg/Desktop/hithanbo/dave_ws/lgg_xmc/Libraries/XMCLib/inc\xmc_usic.h ****  * \par<b>Description</b><br>
 967:C:/Users/lgg/Desktop/hithanbo/dave_ws/lgg_xmc/Libraries/XMCLib/inc\xmc_usic.h ****  * Writes data into the transmit buffer. \n\n
 968:C:/Users/lgg/Desktop/hithanbo/dave_ws/lgg_xmc/Libraries/XMCLib/inc\xmc_usic.h ****  * The data provided is placed in TBUF[0U].
 969:C:/Users/lgg/Desktop/hithanbo/dave_ws/lgg_xmc/Libraries/XMCLib/inc\xmc_usic.h ****  *
 970:C:/Users/lgg/Desktop/hithanbo/dave_ws/lgg_xmc/Libraries/XMCLib/inc\xmc_usic.h ****  *
 971:C:/Users/lgg/Desktop/hithanbo/dave_ws/lgg_xmc/Libraries/XMCLib/inc\xmc_usic.h ****  * \par<b>Related APIs:</b><BR>
 972:C:/Users/lgg/Desktop/hithanbo/dave_ws/lgg_xmc/Libraries/XMCLib/inc\xmc_usic.h ****  * XMC_USIC_CH_WriteToTBUFTCI() \n\n\n
 973:C:/Users/lgg/Desktop/hithanbo/dave_ws/lgg_xmc/Libraries/XMCLib/inc\xmc_usic.h ****  */
 974:C:/Users/lgg/Desktop/hithanbo/dave_ws/lgg_xmc/Libraries/XMCLib/inc\xmc_usic.h **** __STATIC_INLINE void XMC_USIC_CH_WriteToTBUF(XMC_USIC_CH_t *const channel, const uint16_t data)
 975:C:/Users/lgg/Desktop/hithanbo/dave_ws/lgg_xmc/Libraries/XMCLib/inc\xmc_usic.h **** {
 976:C:/Users/lgg/Desktop/hithanbo/dave_ws/lgg_xmc/Libraries/XMCLib/inc\xmc_usic.h ****   channel->TBUF[0U] = data;
 977:C:/Users/lgg/Desktop/hithanbo/dave_ws/lgg_xmc/Libraries/XMCLib/inc\xmc_usic.h **** }
 978:C:/Users/lgg/Desktop/hithanbo/dave_ws/lgg_xmc/Libraries/XMCLib/inc\xmc_usic.h **** 
 979:C:/Users/lgg/Desktop/hithanbo/dave_ws/lgg_xmc/Libraries/XMCLib/inc\xmc_usic.h **** /**
 980:C:/Users/lgg/Desktop/hithanbo/dave_ws/lgg_xmc/Libraries/XMCLib/inc\xmc_usic.h ****  * @param channel Pointer to USIC channel handler of type @ref XMC_USIC_CH_t \n
 981:C:/Users/lgg/Desktop/hithanbo/dave_ws/lgg_xmc/Libraries/XMCLib/inc\xmc_usic.h ****  * 				   \b Range: @ref XMC_USIC0_CH0, @ref XMC_USIC0_CH1 to @ref XMC_USIC2_CH1 based on device su
 982:C:/Users/lgg/Desktop/hithanbo/dave_ws/lgg_xmc/Libraries/XMCLib/inc\xmc_usic.h ****  * @param data Data to be transmitted.
 983:C:/Users/lgg/Desktop/hithanbo/dave_ws/lgg_xmc/Libraries/XMCLib/inc\xmc_usic.h ****  * @param transmit_control_information transmit control information to be configured while transmit
 984:C:/Users/lgg/Desktop/hithanbo/dave_ws/lgg_xmc/Libraries/XMCLib/inc\xmc_usic.h ****  * 			\b Range: minimum= 0, maximum= 31.
 985:C:/Users/lgg/Desktop/hithanbo/dave_ws/lgg_xmc/Libraries/XMCLib/inc\xmc_usic.h ****  * @return None
 986:C:/Users/lgg/Desktop/hithanbo/dave_ws/lgg_xmc/Libraries/XMCLib/inc\xmc_usic.h ****  *
 987:C:/Users/lgg/Desktop/hithanbo/dave_ws/lgg_xmc/Libraries/XMCLib/inc\xmc_usic.h ****  * \par<b>Description</b><br>
 988:C:/Users/lgg/Desktop/hithanbo/dave_ws/lgg_xmc/Libraries/XMCLib/inc\xmc_usic.h ****  * Writes data to the transmit buffer in a control mode. \n\n
 989:C:/Users/lgg/Desktop/hithanbo/dave_ws/lgg_xmc/Libraries/XMCLib/inc\xmc_usic.h ****  * When the respective control mode is enabled , this API can be used.
 990:C:/Users/lgg/Desktop/hithanbo/dave_ws/lgg_xmc/Libraries/XMCLib/inc\xmc_usic.h ****  *
 991:C:/Users/lgg/Desktop/hithanbo/dave_ws/lgg_xmc/Libraries/XMCLib/inc\xmc_usic.h ****  *
 992:C:/Users/lgg/Desktop/hithanbo/dave_ws/lgg_xmc/Libraries/XMCLib/inc\xmc_usic.h ****  * \par<b>Related APIs:</b><BR>
 993:C:/Users/lgg/Desktop/hithanbo/dave_ws/lgg_xmc/Libraries/XMCLib/inc\xmc_usic.h ****  * XMC_USIC_CH_WriteToTBUF() \n\n\n
 994:C:/Users/lgg/Desktop/hithanbo/dave_ws/lgg_xmc/Libraries/XMCLib/inc\xmc_usic.h ****  */
 995:C:/Users/lgg/Desktop/hithanbo/dave_ws/lgg_xmc/Libraries/XMCLib/inc\xmc_usic.h **** __STATIC_INLINE void XMC_USIC_CH_WriteToTBUFTCI(XMC_USIC_CH_t *const channel,
 996:C:/Users/lgg/Desktop/hithanbo/dave_ws/lgg_xmc/Libraries/XMCLib/inc\xmc_usic.h ****                                              const uint16_t data,
 997:C:/Users/lgg/Desktop/hithanbo/dave_ws/lgg_xmc/Libraries/XMCLib/inc\xmc_usic.h ****                                              const uint32_t transmit_control_information)
 998:C:/Users/lgg/Desktop/hithanbo/dave_ws/lgg_xmc/Libraries/XMCLib/inc\xmc_usic.h **** {
 999:C:/Users/lgg/Desktop/hithanbo/dave_ws/lgg_xmc/Libraries/XMCLib/inc\xmc_usic.h ****   channel->TBUF[transmit_control_information] = data;
1000:C:/Users/lgg/Desktop/hithanbo/dave_ws/lgg_xmc/Libraries/XMCLib/inc\xmc_usic.h **** }
1001:C:/Users/lgg/Desktop/hithanbo/dave_ws/lgg_xmc/Libraries/XMCLib/inc\xmc_usic.h **** 
1002:C:/Users/lgg/Desktop/hithanbo/dave_ws/lgg_xmc/Libraries/XMCLib/inc\xmc_usic.h **** /**
1003:C:/Users/lgg/Desktop/hithanbo/dave_ws/lgg_xmc/Libraries/XMCLib/inc\xmc_usic.h ****  * @param  channel Pointer to USIC channel handler of type @ref XMC_USIC_CH_t \n
1004:C:/Users/lgg/Desktop/hithanbo/dave_ws/lgg_xmc/Libraries/XMCLib/inc\xmc_usic.h ****  * 				   \b Range: @ref XMC_USIC0_CH0, @ref XMC_USIC0_CH1 to @ref XMC_USIC2_CH1 based on device su
1005:C:/Users/lgg/Desktop/hithanbo/dave_ws/lgg_xmc/Libraries/XMCLib/inc\xmc_usic.h ****  * @param  word_length Number of bits to be configured for a data word. \n
1006:C:/Users/lgg/Desktop/hithanbo/dave_ws/lgg_xmc/Libraries/XMCLib/inc\xmc_usic.h ****  * 					   \b Range: minimum= 1, maximum= 16. \n
1007:C:/Users/lgg/Desktop/hithanbo/dave_ws/lgg_xmc/Libraries/XMCLib/inc\xmc_usic.h ****  * 					   e.g: For word length of 8, \a word_length should be provided as 8.
1008:C:/Users/lgg/Desktop/hithanbo/dave_ws/lgg_xmc/Libraries/XMCLib/inc\xmc_usic.h ****  * @return None
1009:C:/Users/lgg/Desktop/hithanbo/dave_ws/lgg_xmc/Libraries/XMCLib/inc\xmc_usic.h ****  *
1010:C:/Users/lgg/Desktop/hithanbo/dave_ws/lgg_xmc/Libraries/XMCLib/inc\xmc_usic.h ****  * \par<b>Description</b><br>
1011:C:/Users/lgg/Desktop/hithanbo/dave_ws/lgg_xmc/Libraries/XMCLib/inc\xmc_usic.h ****  * Sets the data word length in number of bits. \n\n
1012:C:/Users/lgg/Desktop/hithanbo/dave_ws/lgg_xmc/Libraries/XMCLib/inc\xmc_usic.h ****  * Sets the number of bits to represent a data word. Frame length should be a multiple of word leng
1013:C:/Users/lgg/Desktop/hithanbo/dave_ws/lgg_xmc/Libraries/XMCLib/inc\xmc_usic.h ****  *
1014:C:/Users/lgg/Desktop/hithanbo/dave_ws/lgg_xmc/Libraries/XMCLib/inc\xmc_usic.h ****  * \par<b>Related APIs:</b><BR>
1015:C:/Users/lgg/Desktop/hithanbo/dave_ws/lgg_xmc/Libraries/XMCLib/inc\xmc_usic.h ****  * XMC_USIC_CH_SetFrameLength()\n\n\n
1016:C:/Users/lgg/Desktop/hithanbo/dave_ws/lgg_xmc/Libraries/XMCLib/inc\xmc_usic.h ****  */
1017:C:/Users/lgg/Desktop/hithanbo/dave_ws/lgg_xmc/Libraries/XMCLib/inc\xmc_usic.h **** __STATIC_INLINE void XMC_USIC_CH_SetWordLength(XMC_USIC_CH_t *const channel, const uint8_t word_len
1018:C:/Users/lgg/Desktop/hithanbo/dave_ws/lgg_xmc/Libraries/XMCLib/inc\xmc_usic.h **** {
1019:C:/Users/lgg/Desktop/hithanbo/dave_ws/lgg_xmc/Libraries/XMCLib/inc\xmc_usic.h ****   channel->SCTR = (uint32_t)(channel->SCTR & (~USIC_CH_SCTR_WLE_Msk)) |
1020:C:/Users/lgg/Desktop/hithanbo/dave_ws/lgg_xmc/Libraries/XMCLib/inc\xmc_usic.h ****                   (uint32_t)(((uint32_t)word_length - 1UL)  << USIC_CH_SCTR_WLE_Pos);
1021:C:/Users/lgg/Desktop/hithanbo/dave_ws/lgg_xmc/Libraries/XMCLib/inc\xmc_usic.h **** }
1022:C:/Users/lgg/Desktop/hithanbo/dave_ws/lgg_xmc/Libraries/XMCLib/inc\xmc_usic.h **** 
1023:C:/Users/lgg/Desktop/hithanbo/dave_ws/lgg_xmc/Libraries/XMCLib/inc\xmc_usic.h **** /**
1024:C:/Users/lgg/Desktop/hithanbo/dave_ws/lgg_xmc/Libraries/XMCLib/inc\xmc_usic.h ****  * @param  channel Pointer to USIC channel handler of type @ref XMC_USIC_CH_t \n
1025:C:/Users/lgg/Desktop/hithanbo/dave_ws/lgg_xmc/Libraries/XMCLib/inc\xmc_usic.h ****  *           \b Range: @ref XMC_USIC0_CH0, @ref XMC_USIC0_CH1 to @ref XMC_USIC2_CH1 based on device
1026:C:/Users/lgg/Desktop/hithanbo/dave_ws/lgg_xmc/Libraries/XMCLib/inc\xmc_usic.h ****  * @param  word_length Number of bits to be configured for a data word. \n
1027:C:/Users/lgg/Desktop/hithanbo/dave_ws/lgg_xmc/Libraries/XMCLib/inc\xmc_usic.h ****  *             \b Range: minimum= 1, maximum= 16. \n
1028:C:/Users/lgg/Desktop/hithanbo/dave_ws/lgg_xmc/Libraries/XMCLib/inc\xmc_usic.h ****  *             e.g: For word length of 8, \a word_length should be provided as 8.
1029:C:/Users/lgg/Desktop/hithanbo/dave_ws/lgg_xmc/Libraries/XMCLib/inc\xmc_usic.h ****  * @return None
1030:C:/Users/lgg/Desktop/hithanbo/dave_ws/lgg_xmc/Libraries/XMCLib/inc\xmc_usic.h ****  *
1031:C:/Users/lgg/Desktop/hithanbo/dave_ws/lgg_xmc/Libraries/XMCLib/inc\xmc_usic.h ****  * \par<b>Description</b><br>
1032:C:/Users/lgg/Desktop/hithanbo/dave_ws/lgg_xmc/Libraries/XMCLib/inc\xmc_usic.h ****  * Sets the data word length in number of bits. \n\n
1033:C:/Users/lgg/Desktop/hithanbo/dave_ws/lgg_xmc/Libraries/XMCLib/inc\xmc_usic.h ****  * Sets the number of bits to represent a data word. Frame length should be a multiple of word leng
1034:C:/Users/lgg/Desktop/hithanbo/dave_ws/lgg_xmc/Libraries/XMCLib/inc\xmc_usic.h ****  *
1035:C:/Users/lgg/Desktop/hithanbo/dave_ws/lgg_xmc/Libraries/XMCLib/inc\xmc_usic.h ****  * \par<b>Related APIs:</b><BR>
1036:C:/Users/lgg/Desktop/hithanbo/dave_ws/lgg_xmc/Libraries/XMCLib/inc\xmc_usic.h ****  * XMC_USIC_CH_SetFrameLength()\n\n\n
1037:C:/Users/lgg/Desktop/hithanbo/dave_ws/lgg_xmc/Libraries/XMCLib/inc\xmc_usic.h ****  */
1038:C:/Users/lgg/Desktop/hithanbo/dave_ws/lgg_xmc/Libraries/XMCLib/inc\xmc_usic.h **** __STATIC_INLINE void XMC_USIC_CH_SetShiftDirection(XMC_USIC_CH_t *const channel, const XMC_USIC_CH_
1039:C:/Users/lgg/Desktop/hithanbo/dave_ws/lgg_xmc/Libraries/XMCLib/inc\xmc_usic.h **** {
1040:C:/Users/lgg/Desktop/hithanbo/dave_ws/lgg_xmc/Libraries/XMCLib/inc\xmc_usic.h ****   channel->SCTR = (uint32_t)(channel->SCTR & (~USIC_CH_SCTR_SDIR_Msk)) | (uint32_t)shift_direction;
1041:C:/Users/lgg/Desktop/hithanbo/dave_ws/lgg_xmc/Libraries/XMCLib/inc\xmc_usic.h **** }
1042:C:/Users/lgg/Desktop/hithanbo/dave_ws/lgg_xmc/Libraries/XMCLib/inc\xmc_usic.h **** 
1043:C:/Users/lgg/Desktop/hithanbo/dave_ws/lgg_xmc/Libraries/XMCLib/inc\xmc_usic.h **** 
1044:C:/Users/lgg/Desktop/hithanbo/dave_ws/lgg_xmc/Libraries/XMCLib/inc\xmc_usic.h **** /**
1045:C:/Users/lgg/Desktop/hithanbo/dave_ws/lgg_xmc/Libraries/XMCLib/inc\xmc_usic.h ****  * @param  channel Pointer to USIC channel handler of type @ref XMC_USIC_CH_t \n
1046:C:/Users/lgg/Desktop/hithanbo/dave_ws/lgg_xmc/Libraries/XMCLib/inc\xmc_usic.h ****  *           \b Range: @ref XMC_USIC0_CH0, @ref XMC_USIC0_CH1 to @ref XMC_USIC2_CH1 based on device
1047:C:/Users/lgg/Desktop/hithanbo/dave_ws/lgg_xmc/Libraries/XMCLib/inc\xmc_usic.h ****  * @return Captured counter value 
1048:C:/Users/lgg/Desktop/hithanbo/dave_ws/lgg_xmc/Libraries/XMCLib/inc\xmc_usic.h ****  *
1049:C:/Users/lgg/Desktop/hithanbo/dave_ws/lgg_xmc/Libraries/XMCLib/inc\xmc_usic.h ****  *
1050:C:/Users/lgg/Desktop/hithanbo/dave_ws/lgg_xmc/Libraries/XMCLib/inc\xmc_usic.h ****  * \par<b>Description</b><br>
1051:C:/Users/lgg/Desktop/hithanbo/dave_ws/lgg_xmc/Libraries/XMCLib/inc\xmc_usic.h ****  * The value of the counter is captured if one of the trigger signals DX0T or DX1T are activated by
1052:C:/Users/lgg/Desktop/hithanbo/dave_ws/lgg_xmc/Libraries/XMCLib/inc\xmc_usic.h ****  */
1053:C:/Users/lgg/Desktop/hithanbo/dave_ws/lgg_xmc/Libraries/XMCLib/inc\xmc_usic.h **** __STATIC_INLINE uint32_t XMC_USIC_CH_GetCaptureTimerValue(const XMC_USIC_CH_t *const channel)
1054:C:/Users/lgg/Desktop/hithanbo/dave_ws/lgg_xmc/Libraries/XMCLib/inc\xmc_usic.h **** {
1055:C:/Users/lgg/Desktop/hithanbo/dave_ws/lgg_xmc/Libraries/XMCLib/inc\xmc_usic.h ****   return channel->CMTR;
1056:C:/Users/lgg/Desktop/hithanbo/dave_ws/lgg_xmc/Libraries/XMCLib/inc\xmc_usic.h **** }
1057:C:/Users/lgg/Desktop/hithanbo/dave_ws/lgg_xmc/Libraries/XMCLib/inc\xmc_usic.h **** 
1058:C:/Users/lgg/Desktop/hithanbo/dave_ws/lgg_xmc/Libraries/XMCLib/inc\xmc_usic.h **** /**
1059:C:/Users/lgg/Desktop/hithanbo/dave_ws/lgg_xmc/Libraries/XMCLib/inc\xmc_usic.h ****  * @param  channel Pointer to USIC channel handler of type @ref XMC_USIC_CH_t \n
1060:C:/Users/lgg/Desktop/hithanbo/dave_ws/lgg_xmc/Libraries/XMCLib/inc\xmc_usic.h ****  *           \b Range: @ref XMC_USIC0_CH0, @ref XMC_USIC0_CH1 to @ref XMC_USIC2_CH1 based on device
1061:C:/Users/lgg/Desktop/hithanbo/dave_ws/lgg_xmc/Libraries/XMCLib/inc\xmc_usic.h ****  * @param  mode divider mode ::XMC_USIC_CH_BRG_CLOCK_DIVIDER_MODE_t \n
1062:C:/Users/lgg/Desktop/hithanbo/dave_ws/lgg_xmc/Libraries/XMCLib/inc\xmc_usic.h ****  * @param  step divider \n
1063:C:/Users/lgg/Desktop/hithanbo/dave_ws/lgg_xmc/Libraries/XMCLib/inc\xmc_usic.h ****  *             \b XMC_USIC_CH_BRG_CLOCK_DIVIDER_MODE_NORMAL resulting divider = 1023 - step \n
1064:C:/Users/lgg/Desktop/hithanbo/dave_ws/lgg_xmc/Libraries/XMCLib/inc\xmc_usic.h ****  *             \b XMC_USIC_CH_BRG_CLOCK_DIVIDER_MODE_FRACTIONAL resulting divider = 1023 / step \n
1065:C:/Users/lgg/Desktop/hithanbo/dave_ws/lgg_xmc/Libraries/XMCLib/inc\xmc_usic.h ****  * 
1066:C:/Users/lgg/Desktop/hithanbo/dave_ws/lgg_xmc/Libraries/XMCLib/inc\xmc_usic.h ****  * @return None
1067:C:/Users/lgg/Desktop/hithanbo/dave_ws/lgg_xmc/Libraries/XMCLib/inc\xmc_usic.h ****  * 
1068:C:/Users/lgg/Desktop/hithanbo/dave_ws/lgg_xmc/Libraries/XMCLib/inc\xmc_usic.h ****  * \par<b>Description</b><br>
1069:C:/Users/lgg/Desktop/hithanbo/dave_ws/lgg_xmc/Libraries/XMCLib/inc\xmc_usic.h ****  * The fractional divider generates its output frequency fFD by either dividing the input frequency
1070:C:/Users/lgg/Desktop/hithanbo/dave_ws/lgg_xmc/Libraries/XMCLib/inc\xmc_usic.h ****  *
1071:C:/Users/lgg/Desktop/hithanbo/dave_ws/lgg_xmc/Libraries/XMCLib/inc\xmc_usic.h ****  */
1072:C:/Users/lgg/Desktop/hithanbo/dave_ws/lgg_xmc/Libraries/XMCLib/inc\xmc_usic.h **** __STATIC_INLINE void XMC_USIC_CH_SetFractionalDivider(XMC_USIC_CH_t *const channel, const XMC_USIC_
1073:C:/Users/lgg/Desktop/hithanbo/dave_ws/lgg_xmc/Libraries/XMCLib/inc\xmc_usic.h **** {
1074:C:/Users/lgg/Desktop/hithanbo/dave_ws/lgg_xmc/Libraries/XMCLib/inc\xmc_usic.h ****   channel->FDR = mode | step;
1075:C:/Users/lgg/Desktop/hithanbo/dave_ws/lgg_xmc/Libraries/XMCLib/inc\xmc_usic.h **** }
1076:C:/Users/lgg/Desktop/hithanbo/dave_ws/lgg_xmc/Libraries/XMCLib/inc\xmc_usic.h **** 
1077:C:/Users/lgg/Desktop/hithanbo/dave_ws/lgg_xmc/Libraries/XMCLib/inc\xmc_usic.h **** /**
1078:C:/Users/lgg/Desktop/hithanbo/dave_ws/lgg_xmc/Libraries/XMCLib/inc\xmc_usic.h ****  * @param  channel Pointer to USIC channel handler of type @ref XMC_USIC_CH_t \n
1079:C:/Users/lgg/Desktop/hithanbo/dave_ws/lgg_xmc/Libraries/XMCLib/inc\xmc_usic.h ****  * 				   \b Range: @ref XMC_USIC0_CH0, @ref XMC_USIC0_CH1 to @ref XMC_USIC2_CH1 based on device su
1080:C:/Users/lgg/Desktop/hithanbo/dave_ws/lgg_xmc/Libraries/XMCLib/inc\xmc_usic.h ****  * @param  frame_length Number of bits in a frame. \n
1081:C:/Users/lgg/Desktop/hithanbo/dave_ws/lgg_xmc/Libraries/XMCLib/inc\xmc_usic.h ****  * 						\b Range: minimum= 1, maximum= 0x3f. The maximum value for fixed frame size is 0x3f. \n
1082:C:/Users/lgg/Desktop/hithanbo/dave_ws/lgg_xmc/Libraries/XMCLib/inc\xmc_usic.h ****  * 						e.g: For a frame length of 16, \a frame_length should be provided as 16.
1083:C:/Users/lgg/Desktop/hithanbo/dave_ws/lgg_xmc/Libraries/XMCLib/inc\xmc_usic.h ****  * @return None
1084:C:/Users/lgg/Desktop/hithanbo/dave_ws/lgg_xmc/Libraries/XMCLib/inc\xmc_usic.h ****  *
1085:C:/Users/lgg/Desktop/hithanbo/dave_ws/lgg_xmc/Libraries/XMCLib/inc\xmc_usic.h ****  * \par<b>Description</b><br>
1086:C:/Users/lgg/Desktop/hithanbo/dave_ws/lgg_xmc/Libraries/XMCLib/inc\xmc_usic.h ****  * Define the data frame length.\n\n
1087:C:/Users/lgg/Desktop/hithanbo/dave_ws/lgg_xmc/Libraries/XMCLib/inc\xmc_usic.h ****  * Set the number of bits to be serially transmitted in a frame.
1088:C:/Users/lgg/Desktop/hithanbo/dave_ws/lgg_xmc/Libraries/XMCLib/inc\xmc_usic.h ****  * The frame length should be multiples of word length. If the value is set to 0x40, the frame leng
1089:C:/Users/lgg/Desktop/hithanbo/dave_ws/lgg_xmc/Libraries/XMCLib/inc\xmc_usic.h ****  * has to be controlled explicitly. 
1090:C:/Users/lgg/Desktop/hithanbo/dave_ws/lgg_xmc/Libraries/XMCLib/inc\xmc_usic.h ****  *
1091:C:/Users/lgg/Desktop/hithanbo/dave_ws/lgg_xmc/Libraries/XMCLib/inc\xmc_usic.h ****  * \par<b>Related APIs:</b><BR>
1092:C:/Users/lgg/Desktop/hithanbo/dave_ws/lgg_xmc/Libraries/XMCLib/inc\xmc_usic.h ****  * XMC_USIC_CH_SetWordLength(), XMC_USIC_CH_EnableFrameLengthControl() \n\n\n
1093:C:/Users/lgg/Desktop/hithanbo/dave_ws/lgg_xmc/Libraries/XMCLib/inc\xmc_usic.h ****  */
1094:C:/Users/lgg/Desktop/hithanbo/dave_ws/lgg_xmc/Libraries/XMCLib/inc\xmc_usic.h **** __STATIC_INLINE void XMC_USIC_CH_SetFrameLength(XMC_USIC_CH_t *const channel, const uint8_t frame_l
1095:C:/Users/lgg/Desktop/hithanbo/dave_ws/lgg_xmc/Libraries/XMCLib/inc\xmc_usic.h **** {
1096:C:/Users/lgg/Desktop/hithanbo/dave_ws/lgg_xmc/Libraries/XMCLib/inc\xmc_usic.h ****   channel->SCTR = (uint32_t)(channel->SCTR & (~USIC_CH_SCTR_FLE_Msk)) |
1097:C:/Users/lgg/Desktop/hithanbo/dave_ws/lgg_xmc/Libraries/XMCLib/inc\xmc_usic.h ****                   (((uint32_t)frame_length - 0x1U)  << USIC_CH_SCTR_FLE_Pos);
1098:C:/Users/lgg/Desktop/hithanbo/dave_ws/lgg_xmc/Libraries/XMCLib/inc\xmc_usic.h **** }
1099:C:/Users/lgg/Desktop/hithanbo/dave_ws/lgg_xmc/Libraries/XMCLib/inc\xmc_usic.h **** 
1100:C:/Users/lgg/Desktop/hithanbo/dave_ws/lgg_xmc/Libraries/XMCLib/inc\xmc_usic.h **** /**
1101:C:/Users/lgg/Desktop/hithanbo/dave_ws/lgg_xmc/Libraries/XMCLib/inc\xmc_usic.h ****  * @param channel Pointer to USIC channel handler of type @ref XMC_USIC_CH_t \n
1102:C:/Users/lgg/Desktop/hithanbo/dave_ws/lgg_xmc/Libraries/XMCLib/inc\xmc_usic.h ****  * 				   \b Range: @ref XMC_USIC0_CH0, @ref XMC_USIC0_CH1 to @ref XMC_USIC2_CH1 based on device su
1103:C:/Users/lgg/Desktop/hithanbo/dave_ws/lgg_xmc/Libraries/XMCLib/inc\xmc_usic.h ****  * @param event Bit mask of the channel events to be enabled. Use @ref XMC_USIC_CH_EVENT_t for the 
1104:C:/Users/lgg/Desktop/hithanbo/dave_ws/lgg_xmc/Libraries/XMCLib/inc\xmc_usic.h ****  * 				\b Range: @ref XMC_USIC_CH_EVENT_RECEIVE_START, @ref XMC_USIC_CH_EVENT_DATA_LOST etc. Multip
1105:C:/Users/lgg/Desktop/hithanbo/dave_ws/lgg_xmc/Libraries/XMCLib/inc\xmc_usic.h ****  * 				can be combined using \a OR operation.
1106:C:/Users/lgg/Desktop/hithanbo/dave_ws/lgg_xmc/Libraries/XMCLib/inc\xmc_usic.h ****  * @return None
1107:C:/Users/lgg/Desktop/hithanbo/dave_ws/lgg_xmc/Libraries/XMCLib/inc\xmc_usic.h ****  *
1108:C:/Users/lgg/Desktop/hithanbo/dave_ws/lgg_xmc/Libraries/XMCLib/inc\xmc_usic.h ****  * \par<b>Description</b><br>
1109:C:/Users/lgg/Desktop/hithanbo/dave_ws/lgg_xmc/Libraries/XMCLib/inc\xmc_usic.h ****  * Enable the channel interrupt events.\n\n
1110:C:/Users/lgg/Desktop/hithanbo/dave_ws/lgg_xmc/Libraries/XMCLib/inc\xmc_usic.h ****  * Common channel events related to serial communication can be configured using this API.
1111:C:/Users/lgg/Desktop/hithanbo/dave_ws/lgg_xmc/Libraries/XMCLib/inc\xmc_usic.h ****  * Multiple events can be combined using the bitwise OR operation and configured in one function ca
1112:C:/Users/lgg/Desktop/hithanbo/dave_ws/lgg_xmc/Libraries/XMCLib/inc\xmc_usic.h ****  * XMC_USIC_CH_EVENT_t enumerates multiple protocol event bitmasks. These enumerations can be used 
1113:C:/Users/lgg/Desktop/hithanbo/dave_ws/lgg_xmc/Libraries/XMCLib/inc\xmc_usic.h ****  *
1114:C:/Users/lgg/Desktop/hithanbo/dave_ws/lgg_xmc/Libraries/XMCLib/inc\xmc_usic.h ****  * \par<b>Related APIs:</b><BR>
1115:C:/Users/lgg/Desktop/hithanbo/dave_ws/lgg_xmc/Libraries/XMCLib/inc\xmc_usic.h ****  * XMC_USIC_CH_DisableEvent(), XMC_USIC_CH_SetInterruptNodePointer() \n\n\n
1116:C:/Users/lgg/Desktop/hithanbo/dave_ws/lgg_xmc/Libraries/XMCLib/inc\xmc_usic.h ****  */
1117:C:/Users/lgg/Desktop/hithanbo/dave_ws/lgg_xmc/Libraries/XMCLib/inc\xmc_usic.h **** __STATIC_INLINE void XMC_USIC_CH_EnableEvent(XMC_USIC_CH_t *const channel, const uint32_t event)
1118:C:/Users/lgg/Desktop/hithanbo/dave_ws/lgg_xmc/Libraries/XMCLib/inc\xmc_usic.h **** {
1119:C:/Users/lgg/Desktop/hithanbo/dave_ws/lgg_xmc/Libraries/XMCLib/inc\xmc_usic.h ****   channel->CCR |= event;
1120:C:/Users/lgg/Desktop/hithanbo/dave_ws/lgg_xmc/Libraries/XMCLib/inc\xmc_usic.h **** }
1121:C:/Users/lgg/Desktop/hithanbo/dave_ws/lgg_xmc/Libraries/XMCLib/inc\xmc_usic.h **** 
1122:C:/Users/lgg/Desktop/hithanbo/dave_ws/lgg_xmc/Libraries/XMCLib/inc\xmc_usic.h **** /**
1123:C:/Users/lgg/Desktop/hithanbo/dave_ws/lgg_xmc/Libraries/XMCLib/inc\xmc_usic.h ****  * @param channel Pointer to USIC channel handler of type @ref XMC_USIC_CH_t \n
1124:C:/Users/lgg/Desktop/hithanbo/dave_ws/lgg_xmc/Libraries/XMCLib/inc\xmc_usic.h ****  * 				  \b Range: @ref XMC_USIC0_CH0, @ref XMC_USIC0_CH1 to @ref XMC_USIC2_CH1 based on device sup
1125:C:/Users/lgg/Desktop/hithanbo/dave_ws/lgg_xmc/Libraries/XMCLib/inc\xmc_usic.h ****  * @param event Bit mask of the channel events to be disabled. Use @ref XMC_USIC_CH_EVENT_t for the
1126:C:/Users/lgg/Desktop/hithanbo/dave_ws/lgg_xmc/Libraries/XMCLib/inc\xmc_usic.h ****  * 				\b Range: @ref XMC_USIC_CH_EVENT_RECEIVE_START, @ref XMC_USIC_CH_EVENT_DATA_LOST etc. Multip
1127:C:/Users/lgg/Desktop/hithanbo/dave_ws/lgg_xmc/Libraries/XMCLib/inc\xmc_usic.h ****  * 				can be combined using \a OR operation.
1128:C:/Users/lgg/Desktop/hithanbo/dave_ws/lgg_xmc/Libraries/XMCLib/inc\xmc_usic.h ****  * @return None
1129:C:/Users/lgg/Desktop/hithanbo/dave_ws/lgg_xmc/Libraries/XMCLib/inc\xmc_usic.h ****  *
1130:C:/Users/lgg/Desktop/hithanbo/dave_ws/lgg_xmc/Libraries/XMCLib/inc\xmc_usic.h ****  * \par<b>Description</b><br>
1131:C:/Users/lgg/Desktop/hithanbo/dave_ws/lgg_xmc/Libraries/XMCLib/inc\xmc_usic.h ****  * Disable the channel interrupt events. \n\n
1132:C:/Users/lgg/Desktop/hithanbo/dave_ws/lgg_xmc/Libraries/XMCLib/inc\xmc_usic.h ****  * Multiple events can be combined using the bitwise OR operation and configured in one function ca
1133:C:/Users/lgg/Desktop/hithanbo/dave_ws/lgg_xmc/Libraries/XMCLib/inc\xmc_usic.h ****  * XMC_USIC_CH_EVENT_t enumerates multiple protocol event bitmasks. These enumerations can be used 
1134:C:/Users/lgg/Desktop/hithanbo/dave_ws/lgg_xmc/Libraries/XMCLib/inc\xmc_usic.h ****  *
1135:C:/Users/lgg/Desktop/hithanbo/dave_ws/lgg_xmc/Libraries/XMCLib/inc\xmc_usic.h ****  * \par<b>Related APIs:</b><BR>
1136:C:/Users/lgg/Desktop/hithanbo/dave_ws/lgg_xmc/Libraries/XMCLib/inc\xmc_usic.h ****  * XMC_USIC_CH_EnableEvent(), XMC_USIC_CH_SetInterruptNodePointer() \n\n\n
1137:C:/Users/lgg/Desktop/hithanbo/dave_ws/lgg_xmc/Libraries/XMCLib/inc\xmc_usic.h **** */
1138:C:/Users/lgg/Desktop/hithanbo/dave_ws/lgg_xmc/Libraries/XMCLib/inc\xmc_usic.h **** __STATIC_INLINE void XMC_USIC_CH_DisableEvent(XMC_USIC_CH_t *const channel, const uint32_t event)
1139:C:/Users/lgg/Desktop/hithanbo/dave_ws/lgg_xmc/Libraries/XMCLib/inc\xmc_usic.h **** {
1140:C:/Users/lgg/Desktop/hithanbo/dave_ws/lgg_xmc/Libraries/XMCLib/inc\xmc_usic.h ****   channel->CCR &= (uint32_t)~event;
1141:C:/Users/lgg/Desktop/hithanbo/dave_ws/lgg_xmc/Libraries/XMCLib/inc\xmc_usic.h **** }
1142:C:/Users/lgg/Desktop/hithanbo/dave_ws/lgg_xmc/Libraries/XMCLib/inc\xmc_usic.h **** 
1143:C:/Users/lgg/Desktop/hithanbo/dave_ws/lgg_xmc/Libraries/XMCLib/inc\xmc_usic.h **** /**
1144:C:/Users/lgg/Desktop/hithanbo/dave_ws/lgg_xmc/Libraries/XMCLib/inc\xmc_usic.h ****  * @param channel Pointer to USIC channel handler of type @ref XMC_USIC_CH_t \n
1145:C:/Users/lgg/Desktop/hithanbo/dave_ws/lgg_xmc/Libraries/XMCLib/inc\xmc_usic.h ****  * 				  \b Range: @ref XMC_USIC0_CH0, @ref XMC_USIC0_CH1 to @ref XMC_USIC2_CH1 based on device sup
1146:C:/Users/lgg/Desktop/hithanbo/dave_ws/lgg_xmc/Libraries/XMCLib/inc\xmc_usic.h ****  * @param  interrupt_node Interrupt node pointer to be configured. \n
1147:C:/Users/lgg/Desktop/hithanbo/dave_ws/lgg_xmc/Libraries/XMCLib/inc\xmc_usic.h ****  * 						  \b Range: @ref XMC_USIC_CH_INTERRUPT_NODE_POINTER_TRANSMIT_SHIFT,
1148:C:/Users/lgg/Desktop/hithanbo/dave_ws/lgg_xmc/Libraries/XMCLib/inc\xmc_usic.h ****  * 						  			@ref XMC_USIC_CH_INTERRUPT_NODE_POINTER_TRANSMIT_BUFFER etc.
1149:C:/Users/lgg/Desktop/hithanbo/dave_ws/lgg_xmc/Libraries/XMCLib/inc\xmc_usic.h ****  * @param service_request Service request number.\n
1150:C:/Users/lgg/Desktop/hithanbo/dave_ws/lgg_xmc/Libraries/XMCLib/inc\xmc_usic.h ****  * 						  \b Range: 0 to 5.
1151:C:/Users/lgg/Desktop/hithanbo/dave_ws/lgg_xmc/Libraries/XMCLib/inc\xmc_usic.h ****  * @return None
1152:C:/Users/lgg/Desktop/hithanbo/dave_ws/lgg_xmc/Libraries/XMCLib/inc\xmc_usic.h ****  *
1153:C:/Users/lgg/Desktop/hithanbo/dave_ws/lgg_xmc/Libraries/XMCLib/inc\xmc_usic.h ****  * \par<b>Description</b><br>
1154:C:/Users/lgg/Desktop/hithanbo/dave_ws/lgg_xmc/Libraries/XMCLib/inc\xmc_usic.h ****  * Sets the interrupt node for USIC channel events. \n\n
1155:C:/Users/lgg/Desktop/hithanbo/dave_ws/lgg_xmc/Libraries/XMCLib/inc\xmc_usic.h ****  * For an event to generate interrupt, node pointer should be configured with service request(SR0, 
1156:C:/Users/lgg/Desktop/hithanbo/dave_ws/lgg_xmc/Libraries/XMCLib/inc\xmc_usic.h ****  * The NVIC node gets linked to the interrupt event by doing so.<br>
1157:C:/Users/lgg/Desktop/hithanbo/dave_ws/lgg_xmc/Libraries/XMCLib/inc\xmc_usic.h ****  * Note: NVIC node should be separately enabled to generate the interrupt.
1158:C:/Users/lgg/Desktop/hithanbo/dave_ws/lgg_xmc/Libraries/XMCLib/inc\xmc_usic.h ****  *
1159:C:/Users/lgg/Desktop/hithanbo/dave_ws/lgg_xmc/Libraries/XMCLib/inc\xmc_usic.h ****  * \par<b>Related APIs:</b><BR>
1160:C:/Users/lgg/Desktop/hithanbo/dave_ws/lgg_xmc/Libraries/XMCLib/inc\xmc_usic.h ****  * XMC_USIC_CH_EnableEvent() \n\n\n
1161:C:/Users/lgg/Desktop/hithanbo/dave_ws/lgg_xmc/Libraries/XMCLib/inc\xmc_usic.h ****  */
1162:C:/Users/lgg/Desktop/hithanbo/dave_ws/lgg_xmc/Libraries/XMCLib/inc\xmc_usic.h **** void XMC_USIC_CH_SetInterruptNodePointer(XMC_USIC_CH_t *const channel,
1163:C:/Users/lgg/Desktop/hithanbo/dave_ws/lgg_xmc/Libraries/XMCLib/inc\xmc_usic.h ****                                          const XMC_USIC_CH_INTERRUPT_NODE_POINTER_t interrupt_node,
1164:C:/Users/lgg/Desktop/hithanbo/dave_ws/lgg_xmc/Libraries/XMCLib/inc\xmc_usic.h ****                                          const uint32_t service_request);
1165:C:/Users/lgg/Desktop/hithanbo/dave_ws/lgg_xmc/Libraries/XMCLib/inc\xmc_usic.h **** 
1166:C:/Users/lgg/Desktop/hithanbo/dave_ws/lgg_xmc/Libraries/XMCLib/inc\xmc_usic.h **** /**
1167:C:/Users/lgg/Desktop/hithanbo/dave_ws/lgg_xmc/Libraries/XMCLib/inc\xmc_usic.h ****  * @param  channel Pointer to USIC channel handler of type @ref XMC_USIC_CH_t \n
1168:C:/Users/lgg/Desktop/hithanbo/dave_ws/lgg_xmc/Libraries/XMCLib/inc\xmc_usic.h ****  * 				   \b Range: @ref XMC_USIC0_CH0, @ref XMC_USIC0_CH1 to @ref XMC_USIC2_CH1 based on device su
1169:C:/Users/lgg/Desktop/hithanbo/dave_ws/lgg_xmc/Libraries/XMCLib/inc\xmc_usic.h ****  * @return Stataus @ref XMC_USIC_CH_TBUF_STATUS_IDLE if transmit buffer is free,
1170:C:/Users/lgg/Desktop/hithanbo/dave_ws/lgg_xmc/Libraries/XMCLib/inc\xmc_usic.h ****  *                 @ref XMC_USIC_CH_TBUF_STATUS_BUSY if transmit buffer is busy.
1171:C:/Users/lgg/Desktop/hithanbo/dave_ws/lgg_xmc/Libraries/XMCLib/inc\xmc_usic.h ****  *
1172:C:/Users/lgg/Desktop/hithanbo/dave_ws/lgg_xmc/Libraries/XMCLib/inc\xmc_usic.h ****  * \par<b>Description</b><br>
1173:C:/Users/lgg/Desktop/hithanbo/dave_ws/lgg_xmc/Libraries/XMCLib/inc\xmc_usic.h ****  * Gets transmit buffer status. \n\n
1174:C:/Users/lgg/Desktop/hithanbo/dave_ws/lgg_xmc/Libraries/XMCLib/inc\xmc_usic.h ****  * Status indicates whether the transmit buffer is free, or busy transmitting data.
1175:C:/Users/lgg/Desktop/hithanbo/dave_ws/lgg_xmc/Libraries/XMCLib/inc\xmc_usic.h ****  * The status depends on the value of TDV flag in TCSR register.
1176:C:/Users/lgg/Desktop/hithanbo/dave_ws/lgg_xmc/Libraries/XMCLib/inc\xmc_usic.h ****  * This status can be used while transmitting data. Transmit data when the transmit buffer
1177:C:/Users/lgg/Desktop/hithanbo/dave_ws/lgg_xmc/Libraries/XMCLib/inc\xmc_usic.h ****  * status is @ref XMC_USIC_CH_TBUF_STATUS_IDLE.
1178:C:/Users/lgg/Desktop/hithanbo/dave_ws/lgg_xmc/Libraries/XMCLib/inc\xmc_usic.h ****  *
1179:C:/Users/lgg/Desktop/hithanbo/dave_ws/lgg_xmc/Libraries/XMCLib/inc\xmc_usic.h ****  * \par<b>Related APIs:</b><BR>
1180:C:/Users/lgg/Desktop/hithanbo/dave_ws/lgg_xmc/Libraries/XMCLib/inc\xmc_usic.h ****  * XMC_USIC_CH_SetDataOutputMode() \n\n\n
1181:C:/Users/lgg/Desktop/hithanbo/dave_ws/lgg_xmc/Libraries/XMCLib/inc\xmc_usic.h ****  */
1182:C:/Users/lgg/Desktop/hithanbo/dave_ws/lgg_xmc/Libraries/XMCLib/inc\xmc_usic.h **** __STATIC_INLINE XMC_USIC_CH_TBUF_STATUS_t XMC_USIC_CH_GetTransmitBufferStatus(XMC_USIC_CH_t *const 
1183:C:/Users/lgg/Desktop/hithanbo/dave_ws/lgg_xmc/Libraries/XMCLib/inc\xmc_usic.h **** {
1184:C:/Users/lgg/Desktop/hithanbo/dave_ws/lgg_xmc/Libraries/XMCLib/inc\xmc_usic.h ****   return (XMC_USIC_CH_TBUF_STATUS_t)(channel->TCSR & USIC_CH_TCSR_TDV_Msk);
1185:C:/Users/lgg/Desktop/hithanbo/dave_ws/lgg_xmc/Libraries/XMCLib/inc\xmc_usic.h **** }
1186:C:/Users/lgg/Desktop/hithanbo/dave_ws/lgg_xmc/Libraries/XMCLib/inc\xmc_usic.h **** 
1187:C:/Users/lgg/Desktop/hithanbo/dave_ws/lgg_xmc/Libraries/XMCLib/inc\xmc_usic.h **** /**
1188:C:/Users/lgg/Desktop/hithanbo/dave_ws/lgg_xmc/Libraries/XMCLib/inc\xmc_usic.h ****  * @brief API to get receive buffer status
1189:C:/Users/lgg/Desktop/hithanbo/dave_ws/lgg_xmc/Libraries/XMCLib/inc\xmc_usic.h ****  * @param  channel Pointer to USIC channel handler of type @ref XMC_USIC_CH_t \n
1190:C:/Users/lgg/Desktop/hithanbo/dave_ws/lgg_xmc/Libraries/XMCLib/inc\xmc_usic.h ****  * 				   \b Range: @ref XMC_USIC0_CH0, @ref XMC_USIC0_CH1 to @ref XMC_USIC2_CH1 based on device su
1191:C:/Users/lgg/Desktop/hithanbo/dave_ws/lgg_xmc/Libraries/XMCLib/inc\xmc_usic.h ****  * @return Status of data validity check for RBUF0 and RBUF1. \n
1192:C:/Users/lgg/Desktop/hithanbo/dave_ws/lgg_xmc/Libraries/XMCLib/inc\xmc_usic.h ****  * 		   Returned value should be masked with RDV0 and RDV1 bits to know the status. \n
1193:C:/Users/lgg/Desktop/hithanbo/dave_ws/lgg_xmc/Libraries/XMCLib/inc\xmc_usic.h ****  * 		   \b Range: @ref XMC_USIC_CH_RBUF_STATUS_DATA_VALID0, @ref XMC_USIC_CH_RBUF_STATUS_DATA_VALID
1194:C:/Users/lgg/Desktop/hithanbo/dave_ws/lgg_xmc/Libraries/XMCLib/inc\xmc_usic.h ****  *
1195:C:/Users/lgg/Desktop/hithanbo/dave_ws/lgg_xmc/Libraries/XMCLib/inc\xmc_usic.h ****  * \par<b>Description</b><br>
1196:C:/Users/lgg/Desktop/hithanbo/dave_ws/lgg_xmc/Libraries/XMCLib/inc\xmc_usic.h ****  * Checks if RBUF0 and RBUF1 have valid unread data. \n\n
1197:C:/Users/lgg/Desktop/hithanbo/dave_ws/lgg_xmc/Libraries/XMCLib/inc\xmc_usic.h ****  * It checks the bits RDV0 and RDV1 of the RBUFSR register.
1198:C:/Users/lgg/Desktop/hithanbo/dave_ws/lgg_xmc/Libraries/XMCLib/inc\xmc_usic.h ****  * Returns the value of RBUFSR masked with bitmasks of RDV0 and RDV1.
1199:C:/Users/lgg/Desktop/hithanbo/dave_ws/lgg_xmc/Libraries/XMCLib/inc\xmc_usic.h ****  * It can be used to decide whether 2bytes has to be read from RBUF or 1 byte. 
1200:C:/Users/lgg/Desktop/hithanbo/dave_ws/lgg_xmc/Libraries/XMCLib/inc\xmc_usic.h ****  * If both bitmasks XMC_USIC_CH_RBUF_STATUS_DATA_VALID0 and XMC_USIC_CH_RBUF_STATUS_DATA_VALID1
1201:C:/Users/lgg/Desktop/hithanbo/dave_ws/lgg_xmc/Libraries/XMCLib/inc\xmc_usic.h ****  * are set, then 2 bytes can be read from RBUF. If only either of them is set, then only one byte
1202:C:/Users/lgg/Desktop/hithanbo/dave_ws/lgg_xmc/Libraries/XMCLib/inc\xmc_usic.h ****  * can be read from RBUF.
1203:C:/Users/lgg/Desktop/hithanbo/dave_ws/lgg_xmc/Libraries/XMCLib/inc\xmc_usic.h ****  * \par<b>Related APIs:</b><BR>
1204:C:/Users/lgg/Desktop/hithanbo/dave_ws/lgg_xmc/Libraries/XMCLib/inc\xmc_usic.h ****  * XMC_USIC_CH_GetTransmitBufferStatus() \n\n\n
1205:C:/Users/lgg/Desktop/hithanbo/dave_ws/lgg_xmc/Libraries/XMCLib/inc\xmc_usic.h ****  */
1206:C:/Users/lgg/Desktop/hithanbo/dave_ws/lgg_xmc/Libraries/XMCLib/inc\xmc_usic.h **** __STATIC_INLINE uint32_t XMC_USIC_CH_GetReceiveBufferStatus(XMC_USIC_CH_t *const channel)
1207:C:/Users/lgg/Desktop/hithanbo/dave_ws/lgg_xmc/Libraries/XMCLib/inc\xmc_usic.h **** {
1208:C:/Users/lgg/Desktop/hithanbo/dave_ws/lgg_xmc/Libraries/XMCLib/inc\xmc_usic.h ****   return ((uint32_t) (channel->RBUFSR & (USIC_CH_RBUFSR_RDV0_Msk | USIC_CH_RBUFSR_RDV1_Msk)));
1209:C:/Users/lgg/Desktop/hithanbo/dave_ws/lgg_xmc/Libraries/XMCLib/inc\xmc_usic.h **** }
1210:C:/Users/lgg/Desktop/hithanbo/dave_ws/lgg_xmc/Libraries/XMCLib/inc\xmc_usic.h **** 
1211:C:/Users/lgg/Desktop/hithanbo/dave_ws/lgg_xmc/Libraries/XMCLib/inc\xmc_usic.h **** 
1212:C:/Users/lgg/Desktop/hithanbo/dave_ws/lgg_xmc/Libraries/XMCLib/inc\xmc_usic.h **** /**
1213:C:/Users/lgg/Desktop/hithanbo/dave_ws/lgg_xmc/Libraries/XMCLib/inc\xmc_usic.h ****  * @param  channel Pointer to USIC channel handler of type @ref XMC_USIC_CH_t \n
1214:C:/Users/lgg/Desktop/hithanbo/dave_ws/lgg_xmc/Libraries/XMCLib/inc\xmc_usic.h ****  * 				   \b Range: @ref XMC_USIC0_CH0, @ref XMC_USIC0_CH1 to @ref XMC_USIC2_CH1 based on device su
1215:C:/Users/lgg/Desktop/hithanbo/dave_ws/lgg_xmc/Libraries/XMCLib/inc\xmc_usic.h ****  * @param  start_transmision_mode Transmission mode to be enabled. \n
1216:C:/Users/lgg/Desktop/hithanbo/dave_ws/lgg_xmc/Libraries/XMCLib/inc\xmc_usic.h ****  * 								\b Range: @ref XMC_USIC_CH_START_TRANSMISION_DISABLED,
1217:C:/Users/lgg/Desktop/hithanbo/dave_ws/lgg_xmc/Libraries/XMCLib/inc\xmc_usic.h ****  * 								@ref XMC_USIC_CH_START_TRANSMISION_ON_TDV, @ref XMC_USIC_CH_START_TRANSMISION_ON_TDV_DX2
1218:C:/Users/lgg/Desktop/hithanbo/dave_ws/lgg_xmc/Libraries/XMCLib/inc\xmc_usic.h ****  * 								@ref XMC_USIC_CH_START_TRANSMISION_ON_TDV_DX2S_1
1219:C:/Users/lgg/Desktop/hithanbo/dave_ws/lgg_xmc/Libraries/XMCLib/inc\xmc_usic.h ****  *                              
1220:C:/Users/lgg/Desktop/hithanbo/dave_ws/lgg_xmc/Libraries/XMCLib/inc\xmc_usic.h ****  * @return None
1221:C:/Users/lgg/Desktop/hithanbo/dave_ws/lgg_xmc/Libraries/XMCLib/inc\xmc_usic.h ****  *
1222:C:/Users/lgg/Desktop/hithanbo/dave_ws/lgg_xmc/Libraries/XMCLib/inc\xmc_usic.h ****  * \par<b>Description</b><br>
1223:C:/Users/lgg/Desktop/hithanbo/dave_ws/lgg_xmc/Libraries/XMCLib/inc\xmc_usic.h ****  * Configures data transmission. \n\n
1224:C:/Users/lgg/Desktop/hithanbo/dave_ws/lgg_xmc/Libraries/XMCLib/inc\xmc_usic.h ****  * The configuration affects the data shifted on the DOUT0 pin.
1225:C:/Users/lgg/Desktop/hithanbo/dave_ws/lgg_xmc/Libraries/XMCLib/inc\xmc_usic.h ****  * 
1226:C:/Users/lgg/Desktop/hithanbo/dave_ws/lgg_xmc/Libraries/XMCLib/inc\xmc_usic.h ****  * \par<b>Related APIs:</b><BR>
1227:C:/Users/lgg/Desktop/hithanbo/dave_ws/lgg_xmc/Libraries/XMCLib/inc\xmc_usic.h ****  * XMC_USIC_CH_GetTransmitBufferStatus(), XMC_USIC_CH_SetDataOutputMode() \n\n\n
1228:C:/Users/lgg/Desktop/hithanbo/dave_ws/lgg_xmc/Libraries/XMCLib/inc\xmc_usic.h ****  */
1229:C:/Users/lgg/Desktop/hithanbo/dave_ws/lgg_xmc/Libraries/XMCLib/inc\xmc_usic.h **** __STATIC_INLINE void XMC_USIC_CH_SetStartTransmisionMode(XMC_USIC_CH_t *const channel,
1230:C:/Users/lgg/Desktop/hithanbo/dave_ws/lgg_xmc/Libraries/XMCLib/inc\xmc_usic.h ****                                                          const XMC_USIC_CH_START_TRANSMISION_MODE_t
1231:C:/Users/lgg/Desktop/hithanbo/dave_ws/lgg_xmc/Libraries/XMCLib/inc\xmc_usic.h **** {
1232:C:/Users/lgg/Desktop/hithanbo/dave_ws/lgg_xmc/Libraries/XMCLib/inc\xmc_usic.h ****   channel->TCSR = (uint32_t)(channel->TCSR & (~USIC_CH_TCSR_TDEN_Msk)) | (uint32_t)start_transmisio
1233:C:/Users/lgg/Desktop/hithanbo/dave_ws/lgg_xmc/Libraries/XMCLib/inc\xmc_usic.h **** }
1234:C:/Users/lgg/Desktop/hithanbo/dave_ws/lgg_xmc/Libraries/XMCLib/inc\xmc_usic.h **** 
1235:C:/Users/lgg/Desktop/hithanbo/dave_ws/lgg_xmc/Libraries/XMCLib/inc\xmc_usic.h **** 
1236:C:/Users/lgg/Desktop/hithanbo/dave_ws/lgg_xmc/Libraries/XMCLib/inc\xmc_usic.h **** /**
1237:C:/Users/lgg/Desktop/hithanbo/dave_ws/lgg_xmc/Libraries/XMCLib/inc\xmc_usic.h ****  * @param  channel Pointer to USIC channel handler of type @ref XMC_USIC_CH_t \n
1238:C:/Users/lgg/Desktop/hithanbo/dave_ws/lgg_xmc/Libraries/XMCLib/inc\xmc_usic.h ****  * 				   \b Range: @ref XMC_USIC0_CH0, @ref XMC_USIC0_CH1 to @ref XMC_USIC2_CH1 based on device su
1239:C:/Users/lgg/Desktop/hithanbo/dave_ws/lgg_xmc/Libraries/XMCLib/inc\xmc_usic.h ****  * @param  data_output_mode  Data output mode. \n
1240:C:/Users/lgg/Desktop/hithanbo/dave_ws/lgg_xmc/Libraries/XMCLib/inc\xmc_usic.h ****  * 			\b Range: @ref XMC_USIC_CH_DATA_OUTPUT_MODE_NORMAL, @ref XMC_USIC_CH_DATA_OUTPUT_MODE_INVERTE
1241:C:/Users/lgg/Desktop/hithanbo/dave_ws/lgg_xmc/Libraries/XMCLib/inc\xmc_usic.h ****  * @return None
1242:C:/Users/lgg/Desktop/hithanbo/dave_ws/lgg_xmc/Libraries/XMCLib/inc\xmc_usic.h ****  *
1243:C:/Users/lgg/Desktop/hithanbo/dave_ws/lgg_xmc/Libraries/XMCLib/inc\xmc_usic.h ****  * \par<b>Description</b><br>
1244:C:/Users/lgg/Desktop/hithanbo/dave_ws/lgg_xmc/Libraries/XMCLib/inc\xmc_usic.h ****  * Configures the mode for data output. \n\n
1245:C:/Users/lgg/Desktop/hithanbo/dave_ws/lgg_xmc/Libraries/XMCLib/inc\xmc_usic.h ****  * USIC channel can be configured to shift inverted data or direct data based on the input to the A
1246:C:/Users/lgg/Desktop/hithanbo/dave_ws/lgg_xmc/Libraries/XMCLib/inc\xmc_usic.h ****  * 
1247:C:/Users/lgg/Desktop/hithanbo/dave_ws/lgg_xmc/Libraries/XMCLib/inc\xmc_usic.h ****  * \par<b>Related APIs:</b><BR>
1248:C:/Users/lgg/Desktop/hithanbo/dave_ws/lgg_xmc/Libraries/XMCLib/inc\xmc_usic.h ****  * XMC_USIC_CH_SetStartTransmisionMode() \n\n\n
1249:C:/Users/lgg/Desktop/hithanbo/dave_ws/lgg_xmc/Libraries/XMCLib/inc\xmc_usic.h ****  */
1250:C:/Users/lgg/Desktop/hithanbo/dave_ws/lgg_xmc/Libraries/XMCLib/inc\xmc_usic.h **** __STATIC_INLINE void XMC_USIC_CH_SetDataOutputMode(XMC_USIC_CH_t *const channel,
1251:C:/Users/lgg/Desktop/hithanbo/dave_ws/lgg_xmc/Libraries/XMCLib/inc\xmc_usic.h ****                                                    const XMC_USIC_CH_DATA_OUTPUT_MODE_t data_output
1252:C:/Users/lgg/Desktop/hithanbo/dave_ws/lgg_xmc/Libraries/XMCLib/inc\xmc_usic.h **** {
1253:C:/Users/lgg/Desktop/hithanbo/dave_ws/lgg_xmc/Libraries/XMCLib/inc\xmc_usic.h ****   channel->SCTR = (uint32_t)(channel->SCTR & (~USIC_CH_SCTR_DOCFG_Msk)) | (uint32_t)data_output_mod
1254:C:/Users/lgg/Desktop/hithanbo/dave_ws/lgg_xmc/Libraries/XMCLib/inc\xmc_usic.h **** }
1255:C:/Users/lgg/Desktop/hithanbo/dave_ws/lgg_xmc/Libraries/XMCLib/inc\xmc_usic.h **** 
1256:C:/Users/lgg/Desktop/hithanbo/dave_ws/lgg_xmc/Libraries/XMCLib/inc\xmc_usic.h **** /**
1257:C:/Users/lgg/Desktop/hithanbo/dave_ws/lgg_xmc/Libraries/XMCLib/inc\xmc_usic.h ****  * @param  channel Pointer to USIC channel handler of type @ref XMC_USIC_CH_t \n
1258:C:/Users/lgg/Desktop/hithanbo/dave_ws/lgg_xmc/Libraries/XMCLib/inc\xmc_usic.h ****  * 				   \b Range: @ref XMC_USIC0_CH0, @ref XMC_USIC0_CH1 to @ref XMC_USIC2_CH1 based on device su
1259:C:/Users/lgg/Desktop/hithanbo/dave_ws/lgg_xmc/Libraries/XMCLib/inc\xmc_usic.h ****  * @return None
1260:C:/Users/lgg/Desktop/hithanbo/dave_ws/lgg_xmc/Libraries/XMCLib/inc\xmc_usic.h ****  *
1261:C:/Users/lgg/Desktop/hithanbo/dave_ws/lgg_xmc/Libraries/XMCLib/inc\xmc_usic.h ****  * \par<b>Description</b><br>
1262:C:/Users/lgg/Desktop/hithanbo/dave_ws/lgg_xmc/Libraries/XMCLib/inc\xmc_usic.h ****  * Enables automatic update of frame length. \n\n
1263:C:/Users/lgg/Desktop/hithanbo/dave_ws/lgg_xmc/Libraries/XMCLib/inc\xmc_usic.h ****  * When the automatic update of frame length is enabled, frame length is configured based on the 
1264:C:/Users/lgg/Desktop/hithanbo/dave_ws/lgg_xmc/Libraries/XMCLib/inc\xmc_usic.h ****  * index of the TBUF[]/IN[] register array. When the data is written to TBUF[x], frame length is co
1265:C:/Users/lgg/Desktop/hithanbo/dave_ws/lgg_xmc/Libraries/XMCLib/inc\xmc_usic.h ****  * with the mask value of \a x at the last 5 bit positions. Same logic is applicable if data is wri
1266:C:/Users/lgg/Desktop/hithanbo/dave_ws/lgg_xmc/Libraries/XMCLib/inc\xmc_usic.h ****  * IN[x] register.
1267:C:/Users/lgg/Desktop/hithanbo/dave_ws/lgg_xmc/Libraries/XMCLib/inc\xmc_usic.h ****  *
1268:C:/Users/lgg/Desktop/hithanbo/dave_ws/lgg_xmc/Libraries/XMCLib/inc\xmc_usic.h ****  * \par<b>Related APIs:</b><BR>
1269:C:/Users/lgg/Desktop/hithanbo/dave_ws/lgg_xmc/Libraries/XMCLib/inc\xmc_usic.h ****  * XMC_USIC_CH_DisableFrameLengthControl(), XMC_USIC_CH_TXFIFO_PutDataFLEMode() \n\n\n
1270:C:/Users/lgg/Desktop/hithanbo/dave_ws/lgg_xmc/Libraries/XMCLib/inc\xmc_usic.h ****  */
1271:C:/Users/lgg/Desktop/hithanbo/dave_ws/lgg_xmc/Libraries/XMCLib/inc\xmc_usic.h **** __STATIC_INLINE void XMC_USIC_CH_EnableFrameLengthControl(XMC_USIC_CH_t *const channel)
1272:C:/Users/lgg/Desktop/hithanbo/dave_ws/lgg_xmc/Libraries/XMCLib/inc\xmc_usic.h **** {
1273:C:/Users/lgg/Desktop/hithanbo/dave_ws/lgg_xmc/Libraries/XMCLib/inc\xmc_usic.h ****   channel->TCSR = (uint32_t)(channel->TCSR & (~(USIC_CH_TCSR_WLEMD_Msk |
1274:C:/Users/lgg/Desktop/hithanbo/dave_ws/lgg_xmc/Libraries/XMCLib/inc\xmc_usic.h ****                                          USIC_CH_TCSR_SELMD_Msk |
1275:C:/Users/lgg/Desktop/hithanbo/dave_ws/lgg_xmc/Libraries/XMCLib/inc\xmc_usic.h ****                                          USIC_CH_TCSR_WAMD_Msk |
1276:C:/Users/lgg/Desktop/hithanbo/dave_ws/lgg_xmc/Libraries/XMCLib/inc\xmc_usic.h ****                                          USIC_CH_TCSR_HPCMD_Msk))) |
1277:C:/Users/lgg/Desktop/hithanbo/dave_ws/lgg_xmc/Libraries/XMCLib/inc\xmc_usic.h ****                                          (uint32_t)USIC_CH_TCSR_FLEMD_Msk;
1278:C:/Users/lgg/Desktop/hithanbo/dave_ws/lgg_xmc/Libraries/XMCLib/inc\xmc_usic.h **** }
1279:C:/Users/lgg/Desktop/hithanbo/dave_ws/lgg_xmc/Libraries/XMCLib/inc\xmc_usic.h **** 
1280:C:/Users/lgg/Desktop/hithanbo/dave_ws/lgg_xmc/Libraries/XMCLib/inc\xmc_usic.h **** /**
1281:C:/Users/lgg/Desktop/hithanbo/dave_ws/lgg_xmc/Libraries/XMCLib/inc\xmc_usic.h ****  * @param  channel Pointer to USIC channel handler of type @ref XMC_USIC_CH_t \n
1282:C:/Users/lgg/Desktop/hithanbo/dave_ws/lgg_xmc/Libraries/XMCLib/inc\xmc_usic.h ****  * 				   \b Range: @ref XMC_USIC0_CH0, @ref XMC_USIC0_CH1 to @ref XMC_USIC2_CH1 based on device su
1283:C:/Users/lgg/Desktop/hithanbo/dave_ws/lgg_xmc/Libraries/XMCLib/inc\xmc_usic.h ****  * @return None
1284:C:/Users/lgg/Desktop/hithanbo/dave_ws/lgg_xmc/Libraries/XMCLib/inc\xmc_usic.h ****  *
1285:C:/Users/lgg/Desktop/hithanbo/dave_ws/lgg_xmc/Libraries/XMCLib/inc\xmc_usic.h ****  * \par<b>Description</b><br>
1286:C:/Users/lgg/Desktop/hithanbo/dave_ws/lgg_xmc/Libraries/XMCLib/inc\xmc_usic.h ****  * Disables automatic update of frame length. \n\n
1287:C:/Users/lgg/Desktop/hithanbo/dave_ws/lgg_xmc/Libraries/XMCLib/inc\xmc_usic.h ****  * When automatic update of frame length is disabled, frame length has to configured explicitly.
1288:C:/Users/lgg/Desktop/hithanbo/dave_ws/lgg_xmc/Libraries/XMCLib/inc\xmc_usic.h ****  * Frame length remains fixed until it is changed again.
1289:C:/Users/lgg/Desktop/hithanbo/dave_ws/lgg_xmc/Libraries/XMCLib/inc\xmc_usic.h ****  *
1290:C:/Users/lgg/Desktop/hithanbo/dave_ws/lgg_xmc/Libraries/XMCLib/inc\xmc_usic.h ****  * \par<b>Related APIs:</b><BR>
1291:C:/Users/lgg/Desktop/hithanbo/dave_ws/lgg_xmc/Libraries/XMCLib/inc\xmc_usic.h ****  * XMC_USIC_CH_DisableFrameLengthControl(), XMC_USIC_CH_SetFrameLength() \n\n\n
1292:C:/Users/lgg/Desktop/hithanbo/dave_ws/lgg_xmc/Libraries/XMCLib/inc\xmc_usic.h ****  */
1293:C:/Users/lgg/Desktop/hithanbo/dave_ws/lgg_xmc/Libraries/XMCLib/inc\xmc_usic.h **** __STATIC_INLINE void XMC_USIC_CH_DisableFrameLengthControl(XMC_USIC_CH_t *const channel)
1294:C:/Users/lgg/Desktop/hithanbo/dave_ws/lgg_xmc/Libraries/XMCLib/inc\xmc_usic.h **** {
1295:C:/Users/lgg/Desktop/hithanbo/dave_ws/lgg_xmc/Libraries/XMCLib/inc\xmc_usic.h ****   channel->TCSR &= (uint32_t)~USIC_CH_TCSR_FLEMD_Msk;
1296:C:/Users/lgg/Desktop/hithanbo/dave_ws/lgg_xmc/Libraries/XMCLib/inc\xmc_usic.h **** }
1297:C:/Users/lgg/Desktop/hithanbo/dave_ws/lgg_xmc/Libraries/XMCLib/inc\xmc_usic.h **** 
1298:C:/Users/lgg/Desktop/hithanbo/dave_ws/lgg_xmc/Libraries/XMCLib/inc\xmc_usic.h **** /**
1299:C:/Users/lgg/Desktop/hithanbo/dave_ws/lgg_xmc/Libraries/XMCLib/inc\xmc_usic.h ****  * @param  channel Pointer to USIC channel handler of type @ref XMC_USIC_CH_t \n
1300:C:/Users/lgg/Desktop/hithanbo/dave_ws/lgg_xmc/Libraries/XMCLib/inc\xmc_usic.h ****  * 				   \b Range: @ref XMC_USIC0_CH0, @ref XMC_USIC0_CH1 to @ref XMC_USIC2_CH1 based on device su
1301:C:/Users/lgg/Desktop/hithanbo/dave_ws/lgg_xmc/Libraries/XMCLib/inc\xmc_usic.h ****  * @return None
1302:C:/Users/lgg/Desktop/hithanbo/dave_ws/lgg_xmc/Libraries/XMCLib/inc\xmc_usic.h ****  *
1303:C:/Users/lgg/Desktop/hithanbo/dave_ws/lgg_xmc/Libraries/XMCLib/inc\xmc_usic.h ****  * \par<b>Description</b><br>
1304:C:/Users/lgg/Desktop/hithanbo/dave_ws/lgg_xmc/Libraries/XMCLib/inc\xmc_usic.h ****  * Bit TCSR.TE is set if DX2T becomes active while TDV = 1. \n\n
1305:C:/Users/lgg/Desktop/hithanbo/dave_ws/lgg_xmc/Libraries/XMCLib/inc\xmc_usic.h ****  * Enables the transfer trigger unit to set bit TCSR.TE if the trigger signal DX2T becomes active
1306:C:/Users/lgg/Desktop/hithanbo/dave_ws/lgg_xmc/Libraries/XMCLib/inc\xmc_usic.h ****  * for event driven transfer starts.
1307:C:/Users/lgg/Desktop/hithanbo/dave_ws/lgg_xmc/Libraries/XMCLib/inc\xmc_usic.h ****  *
1308:C:/Users/lgg/Desktop/hithanbo/dave_ws/lgg_xmc/Libraries/XMCLib/inc\xmc_usic.h ****  * \par<b>Related APIs:</b><BR>
1309:C:/Users/lgg/Desktop/hithanbo/dave_ws/lgg_xmc/Libraries/XMCLib/inc\xmc_usic.h ****  * XMC_USIC_CH_DisableTBUFDataValidTrigger()\n\n\n
1310:C:/Users/lgg/Desktop/hithanbo/dave_ws/lgg_xmc/Libraries/XMCLib/inc\xmc_usic.h ****  */
1311:C:/Users/lgg/Desktop/hithanbo/dave_ws/lgg_xmc/Libraries/XMCLib/inc\xmc_usic.h **** __STATIC_INLINE void XMC_USIC_CH_EnableTBUFDataValidTrigger(XMC_USIC_CH_t *const channel)
1312:C:/Users/lgg/Desktop/hithanbo/dave_ws/lgg_xmc/Libraries/XMCLib/inc\xmc_usic.h **** {
1313:C:/Users/lgg/Desktop/hithanbo/dave_ws/lgg_xmc/Libraries/XMCLib/inc\xmc_usic.h ****   channel->TCSR |= (uint32_t)USIC_CH_TCSR_TDVTR_Msk;
1314:C:/Users/lgg/Desktop/hithanbo/dave_ws/lgg_xmc/Libraries/XMCLib/inc\xmc_usic.h **** }
1315:C:/Users/lgg/Desktop/hithanbo/dave_ws/lgg_xmc/Libraries/XMCLib/inc\xmc_usic.h **** 
1316:C:/Users/lgg/Desktop/hithanbo/dave_ws/lgg_xmc/Libraries/XMCLib/inc\xmc_usic.h **** /**
1317:C:/Users/lgg/Desktop/hithanbo/dave_ws/lgg_xmc/Libraries/XMCLib/inc\xmc_usic.h ****  * @param  channel Pointer to USIC channel handler of type @ref XMC_USIC_CH_t \n
1318:C:/Users/lgg/Desktop/hithanbo/dave_ws/lgg_xmc/Libraries/XMCLib/inc\xmc_usic.h ****  * 				   \b Range: @ref XMC_USIC0_CH0, @ref XMC_USIC0_CH1 to @ref XMC_USIC2_CH1 based on device su
1319:C:/Users/lgg/Desktop/hithanbo/dave_ws/lgg_xmc/Libraries/XMCLib/inc\xmc_usic.h ****  * @return None
1320:C:/Users/lgg/Desktop/hithanbo/dave_ws/lgg_xmc/Libraries/XMCLib/inc\xmc_usic.h ****  *
1321:C:/Users/lgg/Desktop/hithanbo/dave_ws/lgg_xmc/Libraries/XMCLib/inc\xmc_usic.h ****  * \par<b>Description</b><br>
1322:C:/Users/lgg/Desktop/hithanbo/dave_ws/lgg_xmc/Libraries/XMCLib/inc\xmc_usic.h ****  * Disables the trigger of TDV depending on DX2T signal. \n\n
1323:C:/Users/lgg/Desktop/hithanbo/dave_ws/lgg_xmc/Libraries/XMCLib/inc\xmc_usic.h ****  * Bit TCSR.TE is permanently set.
1324:C:/Users/lgg/Desktop/hithanbo/dave_ws/lgg_xmc/Libraries/XMCLib/inc\xmc_usic.h ****  *
1325:C:/Users/lgg/Desktop/hithanbo/dave_ws/lgg_xmc/Libraries/XMCLib/inc\xmc_usic.h ****  * \par<b>Related APIs:</b><BR>
1326:C:/Users/lgg/Desktop/hithanbo/dave_ws/lgg_xmc/Libraries/XMCLib/inc\xmc_usic.h ****  * XMC_USIC_CH_EnableTBUFDataValidTrigger() \n\n\n
1327:C:/Users/lgg/Desktop/hithanbo/dave_ws/lgg_xmc/Libraries/XMCLib/inc\xmc_usic.h ****  */
1328:C:/Users/lgg/Desktop/hithanbo/dave_ws/lgg_xmc/Libraries/XMCLib/inc\xmc_usic.h **** __STATIC_INLINE void XMC_USIC_CH_DisableTBUFDataValidTrigger(XMC_USIC_CH_t *const channel)
1329:C:/Users/lgg/Desktop/hithanbo/dave_ws/lgg_xmc/Libraries/XMCLib/inc\xmc_usic.h **** {
1330:C:/Users/lgg/Desktop/hithanbo/dave_ws/lgg_xmc/Libraries/XMCLib/inc\xmc_usic.h ****   channel->TCSR &= (uint32_t)~USIC_CH_TCSR_TDVTR_Msk;
1331:C:/Users/lgg/Desktop/hithanbo/dave_ws/lgg_xmc/Libraries/XMCLib/inc\xmc_usic.h **** }
1332:C:/Users/lgg/Desktop/hithanbo/dave_ws/lgg_xmc/Libraries/XMCLib/inc\xmc_usic.h **** 
1333:C:/Users/lgg/Desktop/hithanbo/dave_ws/lgg_xmc/Libraries/XMCLib/inc\xmc_usic.h **** /**
1334:C:/Users/lgg/Desktop/hithanbo/dave_ws/lgg_xmc/Libraries/XMCLib/inc\xmc_usic.h ****  * @param  channel Pointer to USIC channel handler of type @ref XMC_USIC_CH_t \n
1335:C:/Users/lgg/Desktop/hithanbo/dave_ws/lgg_xmc/Libraries/XMCLib/inc\xmc_usic.h ****  * 				   \b Range: @ref XMC_USIC0_CH0, @ref XMC_USIC0_CH1 to @ref XMC_USIC2_CH1 based on device su
1336:C:/Users/lgg/Desktop/hithanbo/dave_ws/lgg_xmc/Libraries/XMCLib/inc\xmc_usic.h ****  * @param  service_request_line service request number of the event to be triggered. \n
1337:C:/Users/lgg/Desktop/hithanbo/dave_ws/lgg_xmc/Libraries/XMCLib/inc\xmc_usic.h ****  * 			\b Range: 0 to 5.
1338:C:/Users/lgg/Desktop/hithanbo/dave_ws/lgg_xmc/Libraries/XMCLib/inc\xmc_usic.h ****  * @return None
1339:C:/Users/lgg/Desktop/hithanbo/dave_ws/lgg_xmc/Libraries/XMCLib/inc\xmc_usic.h ****  *
1340:C:/Users/lgg/Desktop/hithanbo/dave_ws/lgg_xmc/Libraries/XMCLib/inc\xmc_usic.h ****  * \par<b>Description</b><br>
1341:C:/Users/lgg/Desktop/hithanbo/dave_ws/lgg_xmc/Libraries/XMCLib/inc\xmc_usic.h ****  * Trigger a USIC interrupt service request.\n\n
1342:C:/Users/lgg/Desktop/hithanbo/dave_ws/lgg_xmc/Libraries/XMCLib/inc\xmc_usic.h ****  * When the USIC service request is triggered, the NVIC interrupt associated with it will be 
1343:C:/Users/lgg/Desktop/hithanbo/dave_ws/lgg_xmc/Libraries/XMCLib/inc\xmc_usic.h ****  * generated if enabled. 
1344:C:/Users/lgg/Desktop/hithanbo/dave_ws/lgg_xmc/Libraries/XMCLib/inc\xmc_usic.h ****  *
1345:C:/Users/lgg/Desktop/hithanbo/dave_ws/lgg_xmc/Libraries/XMCLib/inc\xmc_usic.h ****  * \par<b>Related APIs:</b><BR>
1346:C:/Users/lgg/Desktop/hithanbo/dave_ws/lgg_xmc/Libraries/XMCLib/inc\xmc_usic.h ****  * XMC_USIC_CH_SetInterruptNodePointer() \n\n\n
1347:C:/Users/lgg/Desktop/hithanbo/dave_ws/lgg_xmc/Libraries/XMCLib/inc\xmc_usic.h ****  */
1348:C:/Users/lgg/Desktop/hithanbo/dave_ws/lgg_xmc/Libraries/XMCLib/inc\xmc_usic.h **** __STATIC_INLINE void XMC_USIC_CH_TriggerServiceRequest(XMC_USIC_CH_t *const channel, const uint32_t
1349:C:/Users/lgg/Desktop/hithanbo/dave_ws/lgg_xmc/Libraries/XMCLib/inc\xmc_usic.h **** {
1350:C:/Users/lgg/Desktop/hithanbo/dave_ws/lgg_xmc/Libraries/XMCLib/inc\xmc_usic.h ****   channel->FMR = (uint32_t)(USIC_CH_FMR_SIO0_Msk << service_request_line);
1351:C:/Users/lgg/Desktop/hithanbo/dave_ws/lgg_xmc/Libraries/XMCLib/inc\xmc_usic.h **** }
1352:C:/Users/lgg/Desktop/hithanbo/dave_ws/lgg_xmc/Libraries/XMCLib/inc\xmc_usic.h **** 
1353:C:/Users/lgg/Desktop/hithanbo/dave_ws/lgg_xmc/Libraries/XMCLib/inc\xmc_usic.h **** /**
1354:C:/Users/lgg/Desktop/hithanbo/dave_ws/lgg_xmc/Libraries/XMCLib/inc\xmc_usic.h ****  * @param  channel Pointer to USIC channel handler of type @ref XMC_USIC_CH_t \n
1355:C:/Users/lgg/Desktop/hithanbo/dave_ws/lgg_xmc/Libraries/XMCLib/inc\xmc_usic.h ****  * 				   \b Range: @ref XMC_USIC0_CH0, @ref XMC_USIC0_CH1 to @ref XMC_USIC2_CH1 based on device su
1356:C:/Users/lgg/Desktop/hithanbo/dave_ws/lgg_xmc/Libraries/XMCLib/inc\xmc_usic.h ****  * @param  transmit_buffer_status clearing or setting the TDV flag. \n
1357:C:/Users/lgg/Desktop/hithanbo/dave_ws/lgg_xmc/Libraries/XMCLib/inc\xmc_usic.h ****  *
1358:C:/Users/lgg/Desktop/hithanbo/dave_ws/lgg_xmc/Libraries/XMCLib/inc\xmc_usic.h ****  * @return None
1359:C:/Users/lgg/Desktop/hithanbo/dave_ws/lgg_xmc/Libraries/XMCLib/inc\xmc_usic.h ****  *
1360:C:/Users/lgg/Desktop/hithanbo/dave_ws/lgg_xmc/Libraries/XMCLib/inc\xmc_usic.h ****  * \par<b>Description</b><br>
1361:C:/Users/lgg/Desktop/hithanbo/dave_ws/lgg_xmc/Libraries/XMCLib/inc\xmc_usic.h ****  * Modify TCSR.TDV and TCSR.TE to control the start of a data word transmission by software.
1362:C:/Users/lgg/Desktop/hithanbo/dave_ws/lgg_xmc/Libraries/XMCLib/inc\xmc_usic.h ****  *
1363:C:/Users/lgg/Desktop/hithanbo/dave_ws/lgg_xmc/Libraries/XMCLib/inc\xmc_usic.h ****  * \par<b>Related APIs:</b><BR>
1364:C:/Users/lgg/Desktop/hithanbo/dave_ws/lgg_xmc/Libraries/XMCLib/inc\xmc_usic.h ****  * XMC_USIC_CH_GetTransmitBufferStatus() \n\n\n
1365:C:/Users/lgg/Desktop/hithanbo/dave_ws/lgg_xmc/Libraries/XMCLib/inc\xmc_usic.h ****  */
1366:C:/Users/lgg/Desktop/hithanbo/dave_ws/lgg_xmc/Libraries/XMCLib/inc\xmc_usic.h **** __STATIC_INLINE void XMC_USIC_CH_SetTransmitBufferStatus(XMC_USIC_CH_t *const channel,
1367:C:/Users/lgg/Desktop/hithanbo/dave_ws/lgg_xmc/Libraries/XMCLib/inc\xmc_usic.h **** 		                                                 const XMC_USIC_CH_TBUF_STATUS_SET_t transmit_buf
1368:C:/Users/lgg/Desktop/hithanbo/dave_ws/lgg_xmc/Libraries/XMCLib/inc\xmc_usic.h **** {
1369:C:/Users/lgg/Desktop/hithanbo/dave_ws/lgg_xmc/Libraries/XMCLib/inc\xmc_usic.h ****   channel->FMR = (uint32_t)transmit_buffer_status;
1370:C:/Users/lgg/Desktop/hithanbo/dave_ws/lgg_xmc/Libraries/XMCLib/inc\xmc_usic.h **** }
1371:C:/Users/lgg/Desktop/hithanbo/dave_ws/lgg_xmc/Libraries/XMCLib/inc\xmc_usic.h **** 
1372:C:/Users/lgg/Desktop/hithanbo/dave_ws/lgg_xmc/Libraries/XMCLib/inc\xmc_usic.h **** /**
1373:C:/Users/lgg/Desktop/hithanbo/dave_ws/lgg_xmc/Libraries/XMCLib/inc\xmc_usic.h ****  * @param  channel Pointer to USIC channel handler of type @ref XMC_USIC_CH_t \n
1374:C:/Users/lgg/Desktop/hithanbo/dave_ws/lgg_xmc/Libraries/XMCLib/inc\xmc_usic.h ****  * 				   \b Range: @ref XMC_USIC0_CH0, @ref XMC_USIC0_CH1 to @ref XMC_USIC2_CH1 based on device su
1375:C:/Users/lgg/Desktop/hithanbo/dave_ws/lgg_xmc/Libraries/XMCLib/inc\xmc_usic.h ****  * @param  passive_level Value of passive level for the channel. \n
1376:C:/Users/lgg/Desktop/hithanbo/dave_ws/lgg_xmc/Libraries/XMCLib/inc\xmc_usic.h ****  * 			\b Range: @ref XMC_USIC_CH_PASSIVE_DATA_LEVEL0, @ref XMC_USIC_CH_PASSIVE_DATA_LEVEL1
1377:C:/Users/lgg/Desktop/hithanbo/dave_ws/lgg_xmc/Libraries/XMCLib/inc\xmc_usic.h ****  * @return None
1378:C:/Users/lgg/Desktop/hithanbo/dave_ws/lgg_xmc/Libraries/XMCLib/inc\xmc_usic.h ****  *
1379:C:/Users/lgg/Desktop/hithanbo/dave_ws/lgg_xmc/Libraries/XMCLib/inc\xmc_usic.h ****  * \par<b>Description</b><br>
1380:C:/Users/lgg/Desktop/hithanbo/dave_ws/lgg_xmc/Libraries/XMCLib/inc\xmc_usic.h ****  * Set the passive data level of the output signal. \n\n
1381:C:/Users/lgg/Desktop/hithanbo/dave_ws/lgg_xmc/Libraries/XMCLib/inc\xmc_usic.h ****  * When the USIC channel transmit stage is idle, the output signal level stays at the 
1382:C:/Users/lgg/Desktop/hithanbo/dave_ws/lgg_xmc/Libraries/XMCLib/inc\xmc_usic.h ****  * configured passive level.
1383:C:/Users/lgg/Desktop/hithanbo/dave_ws/lgg_xmc/Libraries/XMCLib/inc\xmc_usic.h ****  * 
1384:C:/Users/lgg/Desktop/hithanbo/dave_ws/lgg_xmc/Libraries/XMCLib/inc\xmc_usic.h ****  * \par<b>Related APIs:</b><BR>
1385:C:/Users/lgg/Desktop/hithanbo/dave_ws/lgg_xmc/Libraries/XMCLib/inc\xmc_usic.h ****  * XMC_USIC_CH_GetTransmitBufferStatus(), XMC_USIC_CH_SetStartTransmisionMode() \n\n\n
1386:C:/Users/lgg/Desktop/hithanbo/dave_ws/lgg_xmc/Libraries/XMCLib/inc\xmc_usic.h ****  */
1387:C:/Users/lgg/Desktop/hithanbo/dave_ws/lgg_xmc/Libraries/XMCLib/inc\xmc_usic.h **** __STATIC_INLINE void XMC_USIC_CH_SetPassiveDataLevel(XMC_USIC_CH_t *const channel,
1388:C:/Users/lgg/Desktop/hithanbo/dave_ws/lgg_xmc/Libraries/XMCLib/inc\xmc_usic.h ****                                                      const XMC_USIC_CH_PASSIVE_DATA_LEVEL_t passive
1389:C:/Users/lgg/Desktop/hithanbo/dave_ws/lgg_xmc/Libraries/XMCLib/inc\xmc_usic.h **** {
1390:C:/Users/lgg/Desktop/hithanbo/dave_ws/lgg_xmc/Libraries/XMCLib/inc\xmc_usic.h ****   channel->SCTR &= (~USIC_CH_SCTR_PDL_Msk);
1391:C:/Users/lgg/Desktop/hithanbo/dave_ws/lgg_xmc/Libraries/XMCLib/inc\xmc_usic.h ****   channel->SCTR |= (uint32_t)passive_level;
1392:C:/Users/lgg/Desktop/hithanbo/dave_ws/lgg_xmc/Libraries/XMCLib/inc\xmc_usic.h **** }
1393:C:/Users/lgg/Desktop/hithanbo/dave_ws/lgg_xmc/Libraries/XMCLib/inc\xmc_usic.h **** 
1394:C:/Users/lgg/Desktop/hithanbo/dave_ws/lgg_xmc/Libraries/XMCLib/inc\xmc_usic.h **** /* TX FIFO APIs */
1395:C:/Users/lgg/Desktop/hithanbo/dave_ws/lgg_xmc/Libraries/XMCLib/inc\xmc_usic.h **** /**
1396:C:/Users/lgg/Desktop/hithanbo/dave_ws/lgg_xmc/Libraries/XMCLib/inc\xmc_usic.h ****  * @param channel Pointer to USIC channel handler of type @ref XMC_USIC_CH_t \n
1397:C:/Users/lgg/Desktop/hithanbo/dave_ws/lgg_xmc/Libraries/XMCLib/inc\xmc_usic.h ****  * 				   \b Range: @ref XMC_USIC0_CH0, @ref XMC_USIC0_CH1 to @ref XMC_USIC2_CH1 based on device su
1398:C:/Users/lgg/Desktop/hithanbo/dave_ws/lgg_xmc/Libraries/XMCLib/inc\xmc_usic.h ****  * @param data_pointer Start position inside the FIFO buffer. \n
1399:C:/Users/lgg/Desktop/hithanbo/dave_ws/lgg_xmc/Libraries/XMCLib/inc\xmc_usic.h ****  * 		\b Range: 0 to 63.
1400:C:/Users/lgg/Desktop/hithanbo/dave_ws/lgg_xmc/Libraries/XMCLib/inc\xmc_usic.h ****  * @param size Required size of the transmit FIFO. \n
1401:C:/Users/lgg/Desktop/hithanbo/dave_ws/lgg_xmc/Libraries/XMCLib/inc\xmc_usic.h ****  * 		\b Range: @ref XMC_USIC_CH_FIFO_DISABLED, @ref XMC_USIC_CH_FIFO_SIZE_2WORDS.. @ref XMC_USIC_CH
1402:C:/Users/lgg/Desktop/hithanbo/dave_ws/lgg_xmc/Libraries/XMCLib/inc\xmc_usic.h ****  * @param limit Threshold of transmit FIFO filling level to be considered for generating events. \n
1403:C:/Users/lgg/Desktop/hithanbo/dave_ws/lgg_xmc/Libraries/XMCLib/inc\xmc_usic.h ****  * 		\b Range: 0 to \a size -1.
1404:C:/Users/lgg/Desktop/hithanbo/dave_ws/lgg_xmc/Libraries/XMCLib/inc\xmc_usic.h ****  * @return None
1405:C:/Users/lgg/Desktop/hithanbo/dave_ws/lgg_xmc/Libraries/XMCLib/inc\xmc_usic.h ****  *
1406:C:/Users/lgg/Desktop/hithanbo/dave_ws/lgg_xmc/Libraries/XMCLib/inc\xmc_usic.h ****  * \par<b>Description</b><br>
1407:C:/Users/lgg/Desktop/hithanbo/dave_ws/lgg_xmc/Libraries/XMCLib/inc\xmc_usic.h ****  * Initializes the transmit FIFO. \n\n
1408:C:/Users/lgg/Desktop/hithanbo/dave_ws/lgg_xmc/Libraries/XMCLib/inc\xmc_usic.h ****  * Transmit FIFO is a subset of a common FIFO sized 64 words. This FIFO is shared between 2 channel
1409:C:/Users/lgg/Desktop/hithanbo/dave_ws/lgg_xmc/Libraries/XMCLib/inc\xmc_usic.h ****  * Each channel can share the FIFO for transmission and reception. \a data_pointer represents the s
1410:C:/Users/lgg/Desktop/hithanbo/dave_ws/lgg_xmc/Libraries/XMCLib/inc\xmc_usic.h ****  * from where transmit data can be put, for the selected USIC channel. \a size represents the size 
1411:C:/Users/lgg/Desktop/hithanbo/dave_ws/lgg_xmc/Libraries/XMCLib/inc\xmc_usic.h ****  * 2. Since the FIFO is shared between 2 USIC channels, FIFO size should be carefully selected. A F
1412:C:/Users/lgg/Desktop/hithanbo/dave_ws/lgg_xmc/Libraries/XMCLib/inc\xmc_usic.h ****  * event is generated when the FIFO filling level falls below the \a limit value.
1413:C:/Users/lgg/Desktop/hithanbo/dave_ws/lgg_xmc/Libraries/XMCLib/inc\xmc_usic.h ****  *
1414:C:/Users/lgg/Desktop/hithanbo/dave_ws/lgg_xmc/Libraries/XMCLib/inc\xmc_usic.h ****  * \par<b>Related APIs:</b><BR>
1415:C:/Users/lgg/Desktop/hithanbo/dave_ws/lgg_xmc/Libraries/XMCLib/inc\xmc_usic.h ****  * XMC_USIC_CH_TXFIFO_EnableEvent(), XMC_USIC_CH_TXFIFO_SetInterruptNodePointer() \n\n\n
1416:C:/Users/lgg/Desktop/hithanbo/dave_ws/lgg_xmc/Libraries/XMCLib/inc\xmc_usic.h ****  */
1417:C:/Users/lgg/Desktop/hithanbo/dave_ws/lgg_xmc/Libraries/XMCLib/inc\xmc_usic.h **** void XMC_USIC_CH_TXFIFO_Configure(XMC_USIC_CH_t *const channel,
1418:C:/Users/lgg/Desktop/hithanbo/dave_ws/lgg_xmc/Libraries/XMCLib/inc\xmc_usic.h ****                                   const uint32_t data_pointer,
1419:C:/Users/lgg/Desktop/hithanbo/dave_ws/lgg_xmc/Libraries/XMCLib/inc\xmc_usic.h ****                                   const XMC_USIC_CH_FIFO_SIZE_t size,
1420:C:/Users/lgg/Desktop/hithanbo/dave_ws/lgg_xmc/Libraries/XMCLib/inc\xmc_usic.h ****                                   const uint32_t limit);
1421:C:/Users/lgg/Desktop/hithanbo/dave_ws/lgg_xmc/Libraries/XMCLib/inc\xmc_usic.h **** 
1422:C:/Users/lgg/Desktop/hithanbo/dave_ws/lgg_xmc/Libraries/XMCLib/inc\xmc_usic.h **** /**
1423:C:/Users/lgg/Desktop/hithanbo/dave_ws/lgg_xmc/Libraries/XMCLib/inc\xmc_usic.h ****  * @param channel Pointer to USIC channel handler of type @ref XMC_USIC_CH_t \n
1424:C:/Users/lgg/Desktop/hithanbo/dave_ws/lgg_xmc/Libraries/XMCLib/inc\xmc_usic.h ****  * 				   \b Range: @ref XMC_USIC0_CH0, @ref XMC_USIC0_CH1 to @ref XMC_USIC2_CH1 based on device su
1425:C:/Users/lgg/Desktop/hithanbo/dave_ws/lgg_xmc/Libraries/XMCLib/inc\xmc_usic.h ****  * @param size Required size of the transmit FIFO. \n
1426:C:/Users/lgg/Desktop/hithanbo/dave_ws/lgg_xmc/Libraries/XMCLib/inc\xmc_usic.h ****  * 		\b Range: @ref XMC_USIC_CH_FIFO_DISABLED, @ref XMC_USIC_CH_FIFO_SIZE_2WORDS.. @ref XMC_USIC_CH
1427:C:/Users/lgg/Desktop/hithanbo/dave_ws/lgg_xmc/Libraries/XMCLib/inc\xmc_usic.h ****  * @param limit Threshold for transmit FIFO filling level to be considered for generating events. \
1428:C:/Users/lgg/Desktop/hithanbo/dave_ws/lgg_xmc/Libraries/XMCLib/inc\xmc_usic.h ****  * 		\b Range: 0 to \a size -1.
1429:C:/Users/lgg/Desktop/hithanbo/dave_ws/lgg_xmc/Libraries/XMCLib/inc\xmc_usic.h ****  * @return None
1430:C:/Users/lgg/Desktop/hithanbo/dave_ws/lgg_xmc/Libraries/XMCLib/inc\xmc_usic.h ****  *
1431:C:/Users/lgg/Desktop/hithanbo/dave_ws/lgg_xmc/Libraries/XMCLib/inc\xmc_usic.h ****  * \par<b>Description</b><br>
1432:C:/Users/lgg/Desktop/hithanbo/dave_ws/lgg_xmc/Libraries/XMCLib/inc\xmc_usic.h ****  * Sets the size and trigger limit for the transmit FIFO. \n\n
1433:C:/Users/lgg/Desktop/hithanbo/dave_ws/lgg_xmc/Libraries/XMCLib/inc\xmc_usic.h ****  * The API is not to be called for initializing the transmit FIFO. The API shall be used for the 
1434:C:/Users/lgg/Desktop/hithanbo/dave_ws/lgg_xmc/Libraries/XMCLib/inc\xmc_usic.h ****  * runtime change of transmit FIFO trigger limit. FIFO start position will not be affected on execu
1435:C:/Users/lgg/Desktop/hithanbo/dave_ws/lgg_xmc/Libraries/XMCLib/inc\xmc_usic.h ****  *
1436:C:/Users/lgg/Desktop/hithanbo/dave_ws/lgg_xmc/Libraries/XMCLib/inc\xmc_usic.h ****  * \par<b>Related APIs:</b><BR>
1437:C:/Users/lgg/Desktop/hithanbo/dave_ws/lgg_xmc/Libraries/XMCLib/inc\xmc_usic.h ****  * XMC_USIC_CH_RXFIFO_SetSizeTriggerLimit() \n\n\n
1438:C:/Users/lgg/Desktop/hithanbo/dave_ws/lgg_xmc/Libraries/XMCLib/inc\xmc_usic.h ****  */
1439:C:/Users/lgg/Desktop/hithanbo/dave_ws/lgg_xmc/Libraries/XMCLib/inc\xmc_usic.h **** void XMC_USIC_CH_TXFIFO_SetSizeTriggerLimit(XMC_USIC_CH_t *const channel,
1440:C:/Users/lgg/Desktop/hithanbo/dave_ws/lgg_xmc/Libraries/XMCLib/inc\xmc_usic.h ****                                             const XMC_USIC_CH_FIFO_SIZE_t size,
1441:C:/Users/lgg/Desktop/hithanbo/dave_ws/lgg_xmc/Libraries/XMCLib/inc\xmc_usic.h ****                                             const uint32_t limit);
1442:C:/Users/lgg/Desktop/hithanbo/dave_ws/lgg_xmc/Libraries/XMCLib/inc\xmc_usic.h **** 
1443:C:/Users/lgg/Desktop/hithanbo/dave_ws/lgg_xmc/Libraries/XMCLib/inc\xmc_usic.h **** 
1444:C:/Users/lgg/Desktop/hithanbo/dave_ws/lgg_xmc/Libraries/XMCLib/inc\xmc_usic.h **** /**
1445:C:/Users/lgg/Desktop/hithanbo/dave_ws/lgg_xmc/Libraries/XMCLib/inc\xmc_usic.h ****  * @param channel Pointer to USIC channel handler of type @ref XMC_USIC_CH_t \n
1446:C:/Users/lgg/Desktop/hithanbo/dave_ws/lgg_xmc/Libraries/XMCLib/inc\xmc_usic.h ****  * 				   \b Range: @ref XMC_USIC0_CH0, @ref XMC_USIC0_CH1 to @ref XMC_USIC2_CH1 based on device su
1447:C:/Users/lgg/Desktop/hithanbo/dave_ws/lgg_xmc/Libraries/XMCLib/inc\xmc_usic.h ****  * @param event Events to be enabled. Multiple events can be bitwise OR combined. @ref XMC_USIC_CH_
1448:C:/Users/lgg/Desktop/hithanbo/dave_ws/lgg_xmc/Libraries/XMCLib/inc\xmc_usic.h ****  * @return None
1449:C:/Users/lgg/Desktop/hithanbo/dave_ws/lgg_xmc/Libraries/XMCLib/inc\xmc_usic.h ****  *
1450:C:/Users/lgg/Desktop/hithanbo/dave_ws/lgg_xmc/Libraries/XMCLib/inc\xmc_usic.h ****  * \par<b>Description</b><br>
1451:C:/Users/lgg/Desktop/hithanbo/dave_ws/lgg_xmc/Libraries/XMCLib/inc\xmc_usic.h ****  * Enables the interrupt events related to transmit FIFO. \n\n
1452:C:/Users/lgg/Desktop/hithanbo/dave_ws/lgg_xmc/Libraries/XMCLib/inc\xmc_usic.h ****  * Event bitmasks can be constructed using the enumeration @ref XMC_USIC_CH_TXFIFO_EVENT_CONF_t.
1453:C:/Users/lgg/Desktop/hithanbo/dave_ws/lgg_xmc/Libraries/XMCLib/inc\xmc_usic.h ****  * Multiple events can be enabled by providing multiple events in a single call. For providing 
1454:C:/Users/lgg/Desktop/hithanbo/dave_ws/lgg_xmc/Libraries/XMCLib/inc\xmc_usic.h ****  * multiple events, combine the events using bitwise OR operation. Events are configured in the TBC
1455:C:/Users/lgg/Desktop/hithanbo/dave_ws/lgg_xmc/Libraries/XMCLib/inc\xmc_usic.h ****  * 
1456:C:/Users/lgg/Desktop/hithanbo/dave_ws/lgg_xmc/Libraries/XMCLib/inc\xmc_usic.h ****  * Note: API only enables the events. For interrupt generation, interrupt node must be configured a
1457:C:/Users/lgg/Desktop/hithanbo/dave_ws/lgg_xmc/Libraries/XMCLib/inc\xmc_usic.h ****  * must be enabled.
1458:C:/Users/lgg/Desktop/hithanbo/dave_ws/lgg_xmc/Libraries/XMCLib/inc\xmc_usic.h ****  *
1459:C:/Users/lgg/Desktop/hithanbo/dave_ws/lgg_xmc/Libraries/XMCLib/inc\xmc_usic.h ****  * \par<b>Related APIs:</b><BR>
1460:C:/Users/lgg/Desktop/hithanbo/dave_ws/lgg_xmc/Libraries/XMCLib/inc\xmc_usic.h ****  * XMC_USIC_CH_TXFIFO_SetInterruptNodePointer() \n\n\n
1461:C:/Users/lgg/Desktop/hithanbo/dave_ws/lgg_xmc/Libraries/XMCLib/inc\xmc_usic.h ****  */
1462:C:/Users/lgg/Desktop/hithanbo/dave_ws/lgg_xmc/Libraries/XMCLib/inc\xmc_usic.h **** __STATIC_INLINE void XMC_USIC_CH_TXFIFO_EnableEvent(XMC_USIC_CH_t *const channel, const uint32_t ev
1463:C:/Users/lgg/Desktop/hithanbo/dave_ws/lgg_xmc/Libraries/XMCLib/inc\xmc_usic.h **** {
1464:C:/Users/lgg/Desktop/hithanbo/dave_ws/lgg_xmc/Libraries/XMCLib/inc\xmc_usic.h ****   channel->TBCTR |= event;
1465:C:/Users/lgg/Desktop/hithanbo/dave_ws/lgg_xmc/Libraries/XMCLib/inc\xmc_usic.h **** }
1466:C:/Users/lgg/Desktop/hithanbo/dave_ws/lgg_xmc/Libraries/XMCLib/inc\xmc_usic.h **** 
1467:C:/Users/lgg/Desktop/hithanbo/dave_ws/lgg_xmc/Libraries/XMCLib/inc\xmc_usic.h **** 
1468:C:/Users/lgg/Desktop/hithanbo/dave_ws/lgg_xmc/Libraries/XMCLib/inc\xmc_usic.h **** /**
1469:C:/Users/lgg/Desktop/hithanbo/dave_ws/lgg_xmc/Libraries/XMCLib/inc\xmc_usic.h ****  * @param channel Pointer to USIC channel handler of type @ref XMC_USIC_CH_t \n
1470:C:/Users/lgg/Desktop/hithanbo/dave_ws/lgg_xmc/Libraries/XMCLib/inc\xmc_usic.h ****  * 				   \b Range: @ref XMC_USIC0_CH0, @ref XMC_USIC0_CH1 to @ref XMC_USIC2_CH1 based on device su
1471:C:/Users/lgg/Desktop/hithanbo/dave_ws/lgg_xmc/Libraries/XMCLib/inc\xmc_usic.h ****  * @param event Events to be disabled. @ref XMC_USIC_CH_TXFIFO_EVENT_CONF_t \n
1472:C:/Users/lgg/Desktop/hithanbo/dave_ws/lgg_xmc/Libraries/XMCLib/inc\xmc_usic.h ****  * @return None
1473:C:/Users/lgg/Desktop/hithanbo/dave_ws/lgg_xmc/Libraries/XMCLib/inc\xmc_usic.h ****  *
1474:C:/Users/lgg/Desktop/hithanbo/dave_ws/lgg_xmc/Libraries/XMCLib/inc\xmc_usic.h ****  * \par<b>Description</b><br>
1475:C:/Users/lgg/Desktop/hithanbo/dave_ws/lgg_xmc/Libraries/XMCLib/inc\xmc_usic.h ****  * Disables the interrupt events related to transmit FIFO. \n\n
1476:C:/Users/lgg/Desktop/hithanbo/dave_ws/lgg_xmc/Libraries/XMCLib/inc\xmc_usic.h ****  * By disabling the interrupt events, generation of interrupt is stopped. User can poll the event 
1477:C:/Users/lgg/Desktop/hithanbo/dave_ws/lgg_xmc/Libraries/XMCLib/inc\xmc_usic.h ****  * flags from the status register using the API XMC_USIC_CH_TXFIFO_GetEvent(). 
1478:C:/Users/lgg/Desktop/hithanbo/dave_ws/lgg_xmc/Libraries/XMCLib/inc\xmc_usic.h ****  * Event bitmasks can be constructed using the enumeration @ref XMC_USIC_CH_TXFIFO_EVENT_CONF_t. Fo
1479:C:/Users/lgg/Desktop/hithanbo/dave_ws/lgg_xmc/Libraries/XMCLib/inc\xmc_usic.h ****  * multiple events, combine the events using bitwise OR operation.
1480:C:/Users/lgg/Desktop/hithanbo/dave_ws/lgg_xmc/Libraries/XMCLib/inc\xmc_usic.h ****  *
1481:C:/Users/lgg/Desktop/hithanbo/dave_ws/lgg_xmc/Libraries/XMCLib/inc\xmc_usic.h ****  * \par<b>Related APIs:</b><BR>
1482:C:/Users/lgg/Desktop/hithanbo/dave_ws/lgg_xmc/Libraries/XMCLib/inc\xmc_usic.h ****  * XMC_USIC_CH_TXFIFO_GetEvent(), XMC_USIC_CH_TXFIFO_EnableEvent() \n\n\n
1483:C:/Users/lgg/Desktop/hithanbo/dave_ws/lgg_xmc/Libraries/XMCLib/inc\xmc_usic.h ****  */
1484:C:/Users/lgg/Desktop/hithanbo/dave_ws/lgg_xmc/Libraries/XMCLib/inc\xmc_usic.h **** __STATIC_INLINE void XMC_USIC_CH_TXFIFO_DisableEvent(XMC_USIC_CH_t *const channel, const uint32_t e
1485:C:/Users/lgg/Desktop/hithanbo/dave_ws/lgg_xmc/Libraries/XMCLib/inc\xmc_usic.h **** {
1486:C:/Users/lgg/Desktop/hithanbo/dave_ws/lgg_xmc/Libraries/XMCLib/inc\xmc_usic.h ****   channel->TBCTR &= (uint32_t)~event;
1487:C:/Users/lgg/Desktop/hithanbo/dave_ws/lgg_xmc/Libraries/XMCLib/inc\xmc_usic.h **** }
1488:C:/Users/lgg/Desktop/hithanbo/dave_ws/lgg_xmc/Libraries/XMCLib/inc\xmc_usic.h **** 
1489:C:/Users/lgg/Desktop/hithanbo/dave_ws/lgg_xmc/Libraries/XMCLib/inc\xmc_usic.h **** /**
1490:C:/Users/lgg/Desktop/hithanbo/dave_ws/lgg_xmc/Libraries/XMCLib/inc\xmc_usic.h ****  * @param channel Pointer to USIC channel handler of type @ref XMC_USIC_CH_t \n
1491:C:/Users/lgg/Desktop/hithanbo/dave_ws/lgg_xmc/Libraries/XMCLib/inc\xmc_usic.h ****  * 				      \b Range: @ref XMC_USIC0_CH0, @ref XMC_USIC0_CH1 to @ref XMC_USIC2_CH1 based on device
1492:C:/Users/lgg/Desktop/hithanbo/dave_ws/lgg_xmc/Libraries/XMCLib/inc\xmc_usic.h ****  * @param interrupt_node Node pointer representing the transmit FIFO events. \n
1493:C:/Users/lgg/Desktop/hithanbo/dave_ws/lgg_xmc/Libraries/XMCLib/inc\xmc_usic.h ****  * 						  \b Range: @ref XMC_USIC_CH_TXFIFO_INTERRUPT_NODE_POINTER_STANDARD,
1494:C:/Users/lgg/Desktop/hithanbo/dave_ws/lgg_xmc/Libraries/XMCLib/inc\xmc_usic.h ****  * 						  			@ref XMC_USIC_CH_TXFIFO_INTERRUPT_NODE_POINTER_ALTERNATE
1495:C:/Users/lgg/Desktop/hithanbo/dave_ws/lgg_xmc/Libraries/XMCLib/inc\xmc_usic.h ****  * @param service_request The service request to be used for interrupt generation. \n
1496:C:/Users/lgg/Desktop/hithanbo/dave_ws/lgg_xmc/Libraries/XMCLib/inc\xmc_usic.h ****  * 						  \b Range: 0 to 5.
1497:C:/Users/lgg/Desktop/hithanbo/dave_ws/lgg_xmc/Libraries/XMCLib/inc\xmc_usic.h ****  * @return None
1498:C:/Users/lgg/Desktop/hithanbo/dave_ws/lgg_xmc/Libraries/XMCLib/inc\xmc_usic.h ****  *
1499:C:/Users/lgg/Desktop/hithanbo/dave_ws/lgg_xmc/Libraries/XMCLib/inc\xmc_usic.h ****  * \par<b>Description</b><br>
1500:C:/Users/lgg/Desktop/hithanbo/dave_ws/lgg_xmc/Libraries/XMCLib/inc\xmc_usic.h ****  * Sets an interrupt node for the transmit FIFO events.\n\n
1501:C:/Users/lgg/Desktop/hithanbo/dave_ws/lgg_xmc/Libraries/XMCLib/inc\xmc_usic.h ****  * A node pointer represents one or more interrupt events. Service request represents the interrupt
1502:C:/Users/lgg/Desktop/hithanbo/dave_ws/lgg_xmc/Libraries/XMCLib/inc\xmc_usic.h ****  * among the 6 interrupt nodes available for USIC module.
1503:C:/Users/lgg/Desktop/hithanbo/dave_ws/lgg_xmc/Libraries/XMCLib/inc\xmc_usic.h ****  * API configures the service request to be used for interrupt generation for the events selected.
1504:C:/Users/lgg/Desktop/hithanbo/dave_ws/lgg_xmc/Libraries/XMCLib/inc\xmc_usic.h ****  * A transmit FIFO event can generate an interrupt only if the interrupt node is configured for the
1505:C:/Users/lgg/Desktop/hithanbo/dave_ws/lgg_xmc/Libraries/XMCLib/inc\xmc_usic.h ****  * the interrupt generation is enabled for the event. For example, transmit FIFO standard transmit 
1506:C:/Users/lgg/Desktop/hithanbo/dave_ws/lgg_xmc/Libraries/XMCLib/inc\xmc_usic.h ****  * interrupt is generated if the interrupt node for the same is set and interrupt is enabled.<br>
1507:C:/Users/lgg/Desktop/hithanbo/dave_ws/lgg_xmc/Libraries/XMCLib/inc\xmc_usic.h ****  *
1508:C:/Users/lgg/Desktop/hithanbo/dave_ws/lgg_xmc/Libraries/XMCLib/inc\xmc_usic.h ****  * Note: NVIC node should be explicitly enabled for the interrupt generation.
1509:C:/Users/lgg/Desktop/hithanbo/dave_ws/lgg_xmc/Libraries/XMCLib/inc\xmc_usic.h ****  *
1510:C:/Users/lgg/Desktop/hithanbo/dave_ws/lgg_xmc/Libraries/XMCLib/inc\xmc_usic.h ****  * \par<b>Related APIs:</b><BR>
1511:C:/Users/lgg/Desktop/hithanbo/dave_ws/lgg_xmc/Libraries/XMCLib/inc\xmc_usic.h ****  * XMC_USIC_CH_TXFIFO_EnableEvent() \n\n\n
1512:C:/Users/lgg/Desktop/hithanbo/dave_ws/lgg_xmc/Libraries/XMCLib/inc\xmc_usic.h ****  */
1513:C:/Users/lgg/Desktop/hithanbo/dave_ws/lgg_xmc/Libraries/XMCLib/inc\xmc_usic.h **** void XMC_USIC_CH_TXFIFO_SetInterruptNodePointer(XMC_USIC_CH_t *const channel,
1514:C:/Users/lgg/Desktop/hithanbo/dave_ws/lgg_xmc/Libraries/XMCLib/inc\xmc_usic.h ****                                                 const XMC_USIC_CH_TXFIFO_INTERRUPT_NODE_POINTER_t i
1515:C:/Users/lgg/Desktop/hithanbo/dave_ws/lgg_xmc/Libraries/XMCLib/inc\xmc_usic.h ****                                                 const uint32_t service_request);
1516:C:/Users/lgg/Desktop/hithanbo/dave_ws/lgg_xmc/Libraries/XMCLib/inc\xmc_usic.h **** 
1517:C:/Users/lgg/Desktop/hithanbo/dave_ws/lgg_xmc/Libraries/XMCLib/inc\xmc_usic.h **** /**
1518:C:/Users/lgg/Desktop/hithanbo/dave_ws/lgg_xmc/Libraries/XMCLib/inc\xmc_usic.h ****  * @param channel Pointer to USIC channel handler of type @ref XMC_USIC_CH_t \n
1519:C:/Users/lgg/Desktop/hithanbo/dave_ws/lgg_xmc/Libraries/XMCLib/inc\xmc_usic.h ****  * 				   \b Range: @ref XMC_USIC0_CH0, @ref XMC_USIC0_CH1 to @ref XMC_USIC2_CH1 based on device su
1520:C:/Users/lgg/Desktop/hithanbo/dave_ws/lgg_xmc/Libraries/XMCLib/inc\xmc_usic.h ****  * @param data Data to be transmitted. \n
1521:C:/Users/lgg/Desktop/hithanbo/dave_ws/lgg_xmc/Libraries/XMCLib/inc\xmc_usic.h ****  *           \b Range: 16bit unsigned data. minimum= 0, maximum= 65535
1522:C:/Users/lgg/Desktop/hithanbo/dave_ws/lgg_xmc/Libraries/XMCLib/inc\xmc_usic.h ****  * @return None
1523:C:/Users/lgg/Desktop/hithanbo/dave_ws/lgg_xmc/Libraries/XMCLib/inc\xmc_usic.h ****  *
1524:C:/Users/lgg/Desktop/hithanbo/dave_ws/lgg_xmc/Libraries/XMCLib/inc\xmc_usic.h ****  * \par<b>Description</b><br>
1525:C:/Users/lgg/Desktop/hithanbo/dave_ws/lgg_xmc/Libraries/XMCLib/inc\xmc_usic.h ****  * Writes data into the transmit FIFO. \n\n
1526:C:/Users/lgg/Desktop/hithanbo/dave_ws/lgg_xmc/Libraries/XMCLib/inc\xmc_usic.h ****  * The data provided is placed in the transmit FIFO.
1527:C:/Users/lgg/Desktop/hithanbo/dave_ws/lgg_xmc/Libraries/XMCLib/inc\xmc_usic.h ****  * The transmit FIFO should be configured before calling this API.
1528:C:/Users/lgg/Desktop/hithanbo/dave_ws/lgg_xmc/Libraries/XMCLib/inc\xmc_usic.h ****  *
1529:C:/Users/lgg/Desktop/hithanbo/dave_ws/lgg_xmc/Libraries/XMCLib/inc\xmc_usic.h ****  * \par<b>Related APIs:</b><BR>
1530:C:/Users/lgg/Desktop/hithanbo/dave_ws/lgg_xmc/Libraries/XMCLib/inc\xmc_usic.h ****  * XMC_USIC_CH_TXFIFO_EnableEvent() \n\n\n
1531:C:/Users/lgg/Desktop/hithanbo/dave_ws/lgg_xmc/Libraries/XMCLib/inc\xmc_usic.h ****  */
1532:C:/Users/lgg/Desktop/hithanbo/dave_ws/lgg_xmc/Libraries/XMCLib/inc\xmc_usic.h **** __STATIC_INLINE void XMC_USIC_CH_TXFIFO_PutData(XMC_USIC_CH_t *const channel, const uint16_t data)
1533:C:/Users/lgg/Desktop/hithanbo/dave_ws/lgg_xmc/Libraries/XMCLib/inc\xmc_usic.h **** {
1534:C:/Users/lgg/Desktop/hithanbo/dave_ws/lgg_xmc/Libraries/XMCLib/inc\xmc_usic.h ****   channel->IN[0] = data;
1535:C:/Users/lgg/Desktop/hithanbo/dave_ws/lgg_xmc/Libraries/XMCLib/inc\xmc_usic.h **** }
1536:C:/Users/lgg/Desktop/hithanbo/dave_ws/lgg_xmc/Libraries/XMCLib/inc\xmc_usic.h **** 
1537:C:/Users/lgg/Desktop/hithanbo/dave_ws/lgg_xmc/Libraries/XMCLib/inc\xmc_usic.h **** /**
1538:C:/Users/lgg/Desktop/hithanbo/dave_ws/lgg_xmc/Libraries/XMCLib/inc\xmc_usic.h ****  * @param channel Pointer to USIC channel handler of type @ref XMC_USIC_CH_t \n
1539:C:/Users/lgg/Desktop/hithanbo/dave_ws/lgg_xmc/Libraries/XMCLib/inc\xmc_usic.h ****  * 				   \b Range: @ref XMC_USIC0_CH0, @ref XMC_USIC0_CH1 to @ref XMC_USIC2_CH1 based on device su
1540:C:/Users/lgg/Desktop/hithanbo/dave_ws/lgg_xmc/Libraries/XMCLib/inc\xmc_usic.h ****  * @param data Data to be transmitted.
1541:C:/Users/lgg/Desktop/hithanbo/dave_ws/lgg_xmc/Libraries/XMCLib/inc\xmc_usic.h ****  * @param frame_length Frame length to be configured while transmitting the data. \n
1542:C:/Users/lgg/Desktop/hithanbo/dave_ws/lgg_xmc/Libraries/XMCLib/inc\xmc_usic.h ****  * 			\b Range: minimum= 0, maximum= 31. e.g: For a frame length of 16, set \a frame_length as 15.
1543:C:/Users/lgg/Desktop/hithanbo/dave_ws/lgg_xmc/Libraries/XMCLib/inc\xmc_usic.h ****  * @return None
1544:C:/Users/lgg/Desktop/hithanbo/dave_ws/lgg_xmc/Libraries/XMCLib/inc\xmc_usic.h ****  *
1545:C:/Users/lgg/Desktop/hithanbo/dave_ws/lgg_xmc/Libraries/XMCLib/inc\xmc_usic.h ****  * \par<b>Description</b><br>
1546:C:/Users/lgg/Desktop/hithanbo/dave_ws/lgg_xmc/Libraries/XMCLib/inc\xmc_usic.h ****  * Writes data to the transmit FIFO in frame length control mode. \n\n
1547:C:/Users/lgg/Desktop/hithanbo/dave_ws/lgg_xmc/Libraries/XMCLib/inc\xmc_usic.h ****  * When frame length control is enabled for dynamic update of frame length, this API can be used.
1548:C:/Users/lgg/Desktop/hithanbo/dave_ws/lgg_xmc/Libraries/XMCLib/inc\xmc_usic.h ****  * \a frame_length represents the frame length to be updated by the peripheral. 
1549:C:/Users/lgg/Desktop/hithanbo/dave_ws/lgg_xmc/Libraries/XMCLib/inc\xmc_usic.h ****  * \a frame_length is used as index for the IN[] register array.
1550:C:/Users/lgg/Desktop/hithanbo/dave_ws/lgg_xmc/Libraries/XMCLib/inc\xmc_usic.h ****  * 
1551:C:/Users/lgg/Desktop/hithanbo/dave_ws/lgg_xmc/Libraries/XMCLib/inc\xmc_usic.h ****  * \par<b>Related APIs:</b><BR>
1552:C:/Users/lgg/Desktop/hithanbo/dave_ws/lgg_xmc/Libraries/XMCLib/inc\xmc_usic.h ****  * XMC_USIC_CH_EnableFrameLengthControl() \n\n\n
1553:C:/Users/lgg/Desktop/hithanbo/dave_ws/lgg_xmc/Libraries/XMCLib/inc\xmc_usic.h ****  */
1554:C:/Users/lgg/Desktop/hithanbo/dave_ws/lgg_xmc/Libraries/XMCLib/inc\xmc_usic.h **** __STATIC_INLINE void XMC_USIC_CH_TXFIFO_PutDataFLEMode(XMC_USIC_CH_t *const channel,
1555:C:/Users/lgg/Desktop/hithanbo/dave_ws/lgg_xmc/Libraries/XMCLib/inc\xmc_usic.h ****                                                        const uint16_t data,
1556:C:/Users/lgg/Desktop/hithanbo/dave_ws/lgg_xmc/Libraries/XMCLib/inc\xmc_usic.h ****                                                        const uint32_t frame_length)
1557:C:/Users/lgg/Desktop/hithanbo/dave_ws/lgg_xmc/Libraries/XMCLib/inc\xmc_usic.h **** {
1558:C:/Users/lgg/Desktop/hithanbo/dave_ws/lgg_xmc/Libraries/XMCLib/inc\xmc_usic.h ****   channel->IN[frame_length] = data;
1559:C:/Users/lgg/Desktop/hithanbo/dave_ws/lgg_xmc/Libraries/XMCLib/inc\xmc_usic.h **** }
1560:C:/Users/lgg/Desktop/hithanbo/dave_ws/lgg_xmc/Libraries/XMCLib/inc\xmc_usic.h **** 
1561:C:/Users/lgg/Desktop/hithanbo/dave_ws/lgg_xmc/Libraries/XMCLib/inc\xmc_usic.h **** /**
1562:C:/Users/lgg/Desktop/hithanbo/dave_ws/lgg_xmc/Libraries/XMCLib/inc\xmc_usic.h ****  * @param channel Pointer to USIC channel handler of type @ref XMC_USIC_CH_t \n
1563:C:/Users/lgg/Desktop/hithanbo/dave_ws/lgg_xmc/Libraries/XMCLib/inc\xmc_usic.h ****  * 				   \b Range: @ref XMC_USIC0_CH0, @ref XMC_USIC0_CH1 to @ref XMC_USIC2_CH1 based on device su
1564:C:/Users/lgg/Desktop/hithanbo/dave_ws/lgg_xmc/Libraries/XMCLib/inc\xmc_usic.h ****  * @param data Data to be transmitted.
1565:C:/Users/lgg/Desktop/hithanbo/dave_ws/lgg_xmc/Libraries/XMCLib/inc\xmc_usic.h ****  * @param frame_length Frame length to be configured while transmitting the data. \n
1566:C:/Users/lgg/Desktop/hithanbo/dave_ws/lgg_xmc/Libraries/XMCLib/inc\xmc_usic.h ****  * 			\b Range: minimum= 0, maximum= 31. e.g: For a frame length of 16, set \a frame_length as 15.
1567:C:/Users/lgg/Desktop/hithanbo/dave_ws/lgg_xmc/Libraries/XMCLib/inc\xmc_usic.h ****  * @return None
1568:C:/Users/lgg/Desktop/hithanbo/dave_ws/lgg_xmc/Libraries/XMCLib/inc\xmc_usic.h ****  *
1569:C:/Users/lgg/Desktop/hithanbo/dave_ws/lgg_xmc/Libraries/XMCLib/inc\xmc_usic.h ****  * \par<b>Description</b><br>
1570:C:/Users/lgg/Desktop/hithanbo/dave_ws/lgg_xmc/Libraries/XMCLib/inc\xmc_usic.h ****  * Writes data to the transmit FIFO in hardware port control mode. \n\n
1571:C:/Users/lgg/Desktop/hithanbo/dave_ws/lgg_xmc/Libraries/XMCLib/inc\xmc_usic.h ****  * When hardware port control is enabled for dynamic update of frame length, this API can be used.
1572:C:/Users/lgg/Desktop/hithanbo/dave_ws/lgg_xmc/Libraries/XMCLib/inc\xmc_usic.h ****  * \a frame_length represents the frame length to be updated by the peripheral. 
1573:C:/Users/lgg/Desktop/hithanbo/dave_ws/lgg_xmc/Libraries/XMCLib/inc\xmc_usic.h ****  * \a frame_length is used as index for the IN[] register array.
1574:C:/Users/lgg/Desktop/hithanbo/dave_ws/lgg_xmc/Libraries/XMCLib/inc\xmc_usic.h ****  * 
1575:C:/Users/lgg/Desktop/hithanbo/dave_ws/lgg_xmc/Libraries/XMCLib/inc\xmc_usic.h ****  * \par<b>Related APIs:</b><BR>
1576:C:/Users/lgg/Desktop/hithanbo/dave_ws/lgg_xmc/Libraries/XMCLib/inc\xmc_usic.h ****  * XMC_USIC_CH_EnableFrameLengthControl() \n\n\n
1577:C:/Users/lgg/Desktop/hithanbo/dave_ws/lgg_xmc/Libraries/XMCLib/inc\xmc_usic.h ****  */
1578:C:/Users/lgg/Desktop/hithanbo/dave_ws/lgg_xmc/Libraries/XMCLib/inc\xmc_usic.h **** __STATIC_INLINE void XMC_USIC_CH_TXFIFO_PutDataHPCMode(XMC_USIC_CH_t *const channel,
1579:C:/Users/lgg/Desktop/hithanbo/dave_ws/lgg_xmc/Libraries/XMCLib/inc\xmc_usic.h ****                                                        const uint16_t data,
1580:C:/Users/lgg/Desktop/hithanbo/dave_ws/lgg_xmc/Libraries/XMCLib/inc\xmc_usic.h ****                                                        const uint32_t frame_length)
1581:C:/Users/lgg/Desktop/hithanbo/dave_ws/lgg_xmc/Libraries/XMCLib/inc\xmc_usic.h **** {
1582:C:/Users/lgg/Desktop/hithanbo/dave_ws/lgg_xmc/Libraries/XMCLib/inc\xmc_usic.h ****   channel->IN[frame_length] = data;
1583:C:/Users/lgg/Desktop/hithanbo/dave_ws/lgg_xmc/Libraries/XMCLib/inc\xmc_usic.h **** }
1584:C:/Users/lgg/Desktop/hithanbo/dave_ws/lgg_xmc/Libraries/XMCLib/inc\xmc_usic.h **** 
1585:C:/Users/lgg/Desktop/hithanbo/dave_ws/lgg_xmc/Libraries/XMCLib/inc\xmc_usic.h **** /**
1586:C:/Users/lgg/Desktop/hithanbo/dave_ws/lgg_xmc/Libraries/XMCLib/inc\xmc_usic.h ****  * @param channel Pointer to USIC channel handler of type @ref XMC_USIC_CH_t \n
1587:C:/Users/lgg/Desktop/hithanbo/dave_ws/lgg_xmc/Libraries/XMCLib/inc\xmc_usic.h ****  * 				   \b Range: @ref XMC_USIC0_CH0, @ref XMC_USIC0_CH1 to @ref XMC_USIC2_CH1 based on device su
1588:C:/Users/lgg/Desktop/hithanbo/dave_ws/lgg_xmc/Libraries/XMCLib/inc\xmc_usic.h ****  * @return None
1589:C:/Users/lgg/Desktop/hithanbo/dave_ws/lgg_xmc/Libraries/XMCLib/inc\xmc_usic.h ****  *
1590:C:/Users/lgg/Desktop/hithanbo/dave_ws/lgg_xmc/Libraries/XMCLib/inc\xmc_usic.h ****  * \par<b>Description</b><br>
1591:C:/Users/lgg/Desktop/hithanbo/dave_ws/lgg_xmc/Libraries/XMCLib/inc\xmc_usic.h ****  * Clears the contents of transmit FIFO. \n\n
1592:C:/Users/lgg/Desktop/hithanbo/dave_ws/lgg_xmc/Libraries/XMCLib/inc\xmc_usic.h ****  * Transmit FIFO contents will be cleared and the filling level will be reset to 0.
1593:C:/Users/lgg/Desktop/hithanbo/dave_ws/lgg_xmc/Libraries/XMCLib/inc\xmc_usic.h ****  * 
1594:C:/Users/lgg/Desktop/hithanbo/dave_ws/lgg_xmc/Libraries/XMCLib/inc\xmc_usic.h ****  * \par<b>Related APIs:</b><BR>
1595:C:/Users/lgg/Desktop/hithanbo/dave_ws/lgg_xmc/Libraries/XMCLib/inc\xmc_usic.h ****  * XMC_USIC_CH_TXFIFO_GetLevel() \n\n\n
1596:C:/Users/lgg/Desktop/hithanbo/dave_ws/lgg_xmc/Libraries/XMCLib/inc\xmc_usic.h ****  */
1597:C:/Users/lgg/Desktop/hithanbo/dave_ws/lgg_xmc/Libraries/XMCLib/inc\xmc_usic.h **** __STATIC_INLINE void XMC_USIC_CH_TXFIFO_Flush(XMC_USIC_CH_t *const channel)
1598:C:/Users/lgg/Desktop/hithanbo/dave_ws/lgg_xmc/Libraries/XMCLib/inc\xmc_usic.h **** {
1599:C:/Users/lgg/Desktop/hithanbo/dave_ws/lgg_xmc/Libraries/XMCLib/inc\xmc_usic.h ****   channel->TRBSCR = (uint32_t)USIC_CH_TRBSCR_FLUSHTB_Msk;
1600:C:/Users/lgg/Desktop/hithanbo/dave_ws/lgg_xmc/Libraries/XMCLib/inc\xmc_usic.h **** }
1601:C:/Users/lgg/Desktop/hithanbo/dave_ws/lgg_xmc/Libraries/XMCLib/inc\xmc_usic.h **** 
1602:C:/Users/lgg/Desktop/hithanbo/dave_ws/lgg_xmc/Libraries/XMCLib/inc\xmc_usic.h **** /**
1603:C:/Users/lgg/Desktop/hithanbo/dave_ws/lgg_xmc/Libraries/XMCLib/inc\xmc_usic.h ****  * @param channel Pointer to USIC channel handler of type @ref XMC_USIC_CH_t \n
1604:C:/Users/lgg/Desktop/hithanbo/dave_ws/lgg_xmc/Libraries/XMCLib/inc\xmc_usic.h ****  * 				   \b Range: @ref XMC_USIC0_CH0, @ref XMC_USIC0_CH1 to @ref XMC_USIC2_CH1 based on device su
1605:C:/Users/lgg/Desktop/hithanbo/dave_ws/lgg_xmc/Libraries/XMCLib/inc\xmc_usic.h ****  * @return Status \a true if transmit FIFO is full
1606:C:/Users/lgg/Desktop/hithanbo/dave_ws/lgg_xmc/Libraries/XMCLib/inc\xmc_usic.h ****  *              \a false if transmit FIFO is not full.
1607:C:/Users/lgg/Desktop/hithanbo/dave_ws/lgg_xmc/Libraries/XMCLib/inc\xmc_usic.h ****  *
1608:C:/Users/lgg/Desktop/hithanbo/dave_ws/lgg_xmc/Libraries/XMCLib/inc\xmc_usic.h ****  * \par<b>Description</b><br>
1609:C:/Users/lgg/Desktop/hithanbo/dave_ws/lgg_xmc/Libraries/XMCLib/inc\xmc_usic.h ****  * Checks if transmit FIFO is full. \n\n
1610:C:/Users/lgg/Desktop/hithanbo/dave_ws/lgg_xmc/Libraries/XMCLib/inc\xmc_usic.h ****  * When the transmit FIFO filling level reaches the configured size, FIFO full flag is set.
1611:C:/Users/lgg/Desktop/hithanbo/dave_ws/lgg_xmc/Libraries/XMCLib/inc\xmc_usic.h ****  * User should not write to the FIFO when the transmit FIFO is full.
1612:C:/Users/lgg/Desktop/hithanbo/dave_ws/lgg_xmc/Libraries/XMCLib/inc\xmc_usic.h ****  * 
1613:C:/Users/lgg/Desktop/hithanbo/dave_ws/lgg_xmc/Libraries/XMCLib/inc\xmc_usic.h ****  * \par<b>Related APIs:</b><BR>
1614:C:/Users/lgg/Desktop/hithanbo/dave_ws/lgg_xmc/Libraries/XMCLib/inc\xmc_usic.h ****  * XMC_USIC_CH_TXFIFO_IsEmpty(), XMC_USIC_CH_TXFIFO_Flush() \n\n\n
1615:C:/Users/lgg/Desktop/hithanbo/dave_ws/lgg_xmc/Libraries/XMCLib/inc\xmc_usic.h ****  */
1616:C:/Users/lgg/Desktop/hithanbo/dave_ws/lgg_xmc/Libraries/XMCLib/inc\xmc_usic.h **** __STATIC_INLINE bool XMC_USIC_CH_TXFIFO_IsFull(XMC_USIC_CH_t *const channel)
1617:C:/Users/lgg/Desktop/hithanbo/dave_ws/lgg_xmc/Libraries/XMCLib/inc\xmc_usic.h **** {
1618:C:/Users/lgg/Desktop/hithanbo/dave_ws/lgg_xmc/Libraries/XMCLib/inc\xmc_usic.h ****   return (bool)(channel->TRBSR & USIC_CH_TRBSR_TFULL_Msk);
1619:C:/Users/lgg/Desktop/hithanbo/dave_ws/lgg_xmc/Libraries/XMCLib/inc\xmc_usic.h **** }
1620:C:/Users/lgg/Desktop/hithanbo/dave_ws/lgg_xmc/Libraries/XMCLib/inc\xmc_usic.h **** 
1621:C:/Users/lgg/Desktop/hithanbo/dave_ws/lgg_xmc/Libraries/XMCLib/inc\xmc_usic.h **** /**
1622:C:/Users/lgg/Desktop/hithanbo/dave_ws/lgg_xmc/Libraries/XMCLib/inc\xmc_usic.h ****  * @param channel Pointer to USIC channel handler of type @ref XMC_USIC_CH_t \n
1623:C:/Users/lgg/Desktop/hithanbo/dave_ws/lgg_xmc/Libraries/XMCLib/inc\xmc_usic.h ****  * 				   \b Range: @ref XMC_USIC0_CH0, @ref XMC_USIC0_CH1 to @ref XMC_USIC2_CH1 based on device su
1624:C:/Users/lgg/Desktop/hithanbo/dave_ws/lgg_xmc/Libraries/XMCLib/inc\xmc_usic.h ****  * @return Status \a true if transmit FIFO is empty
1625:C:/Users/lgg/Desktop/hithanbo/dave_ws/lgg_xmc/Libraries/XMCLib/inc\xmc_usic.h ****  *              \a false if transmit FIFO has some data.
1626:C:/Users/lgg/Desktop/hithanbo/dave_ws/lgg_xmc/Libraries/XMCLib/inc\xmc_usic.h ****  *
1627:C:/Users/lgg/Desktop/hithanbo/dave_ws/lgg_xmc/Libraries/XMCLib/inc\xmc_usic.h ****  * \par<b>Description</b><br>
1628:C:/Users/lgg/Desktop/hithanbo/dave_ws/lgg_xmc/Libraries/XMCLib/inc\xmc_usic.h ****  * Checks if transmit FIFO is empty. \n\n
1629:C:/Users/lgg/Desktop/hithanbo/dave_ws/lgg_xmc/Libraries/XMCLib/inc\xmc_usic.h ****  * When the transmit FIFO is empty, data can be written to FIFO.
1630:C:/Users/lgg/Desktop/hithanbo/dave_ws/lgg_xmc/Libraries/XMCLib/inc\xmc_usic.h ****  * When the last written word to the transmit FIFO is transmitted out of the FIFO, 
1631:C:/Users/lgg/Desktop/hithanbo/dave_ws/lgg_xmc/Libraries/XMCLib/inc\xmc_usic.h ****  * FIFO empty flag is set.
1632:C:/Users/lgg/Desktop/hithanbo/dave_ws/lgg_xmc/Libraries/XMCLib/inc\xmc_usic.h ****  * 
1633:C:/Users/lgg/Desktop/hithanbo/dave_ws/lgg_xmc/Libraries/XMCLib/inc\xmc_usic.h ****  * \par<b>Related APIs:</b><BR>
1634:C:/Users/lgg/Desktop/hithanbo/dave_ws/lgg_xmc/Libraries/XMCLib/inc\xmc_usic.h ****  * XMC_USIC_CH_TXFIFO_Flush(), XMC_USIC_CH_TXFIFO_PutData() \n\n\n
1635:C:/Users/lgg/Desktop/hithanbo/dave_ws/lgg_xmc/Libraries/XMCLib/inc\xmc_usic.h ****  */
1636:C:/Users/lgg/Desktop/hithanbo/dave_ws/lgg_xmc/Libraries/XMCLib/inc\xmc_usic.h **** __STATIC_INLINE bool XMC_USIC_CH_TXFIFO_IsEmpty(XMC_USIC_CH_t *const channel)
1637:C:/Users/lgg/Desktop/hithanbo/dave_ws/lgg_xmc/Libraries/XMCLib/inc\xmc_usic.h **** {
1638:C:/Users/lgg/Desktop/hithanbo/dave_ws/lgg_xmc/Libraries/XMCLib/inc\xmc_usic.h ****   return (bool)(channel->TRBSR & USIC_CH_TRBSR_TEMPTY_Msk);
1639:C:/Users/lgg/Desktop/hithanbo/dave_ws/lgg_xmc/Libraries/XMCLib/inc\xmc_usic.h **** }
1640:C:/Users/lgg/Desktop/hithanbo/dave_ws/lgg_xmc/Libraries/XMCLib/inc\xmc_usic.h **** 
1641:C:/Users/lgg/Desktop/hithanbo/dave_ws/lgg_xmc/Libraries/XMCLib/inc\xmc_usic.h **** /**
1642:C:/Users/lgg/Desktop/hithanbo/dave_ws/lgg_xmc/Libraries/XMCLib/inc\xmc_usic.h ****  * @param channel Pointer to USIC channel handler of type @ref XMC_USIC_CH_t \n
1643:C:/Users/lgg/Desktop/hithanbo/dave_ws/lgg_xmc/Libraries/XMCLib/inc\xmc_usic.h ****  * 				   \b Range: @ref XMC_USIC0_CH0, @ref XMC_USIC0_CH1 to @ref XMC_USIC2_CH1 based on device su
1644:C:/Users/lgg/Desktop/hithanbo/dave_ws/lgg_xmc/Libraries/XMCLib/inc\xmc_usic.h ****  * @return Transmit FIFO filling level. \n 
1645:C:/Users/lgg/Desktop/hithanbo/dave_ws/lgg_xmc/Libraries/XMCLib/inc\xmc_usic.h ****  *           \b Range: minimum= 0(FIFO empty), maximum= transmit FIFO size.
1646:C:/Users/lgg/Desktop/hithanbo/dave_ws/lgg_xmc/Libraries/XMCLib/inc\xmc_usic.h ****  *
1647:C:/Users/lgg/Desktop/hithanbo/dave_ws/lgg_xmc/Libraries/XMCLib/inc\xmc_usic.h ****  * \par<b>Description</b><br>
1648:C:/Users/lgg/Desktop/hithanbo/dave_ws/lgg_xmc/Libraries/XMCLib/inc\xmc_usic.h ****  * Gets the transmit FIFO filling level. \n\n
1649:C:/Users/lgg/Desktop/hithanbo/dave_ws/lgg_xmc/Libraries/XMCLib/inc\xmc_usic.h ****  * For every word written to the FIFO, filling level is updated. The API gives the value
1650:C:/Users/lgg/Desktop/hithanbo/dave_ws/lgg_xmc/Libraries/XMCLib/inc\xmc_usic.h ****  * of this filling level.
1651:C:/Users/lgg/Desktop/hithanbo/dave_ws/lgg_xmc/Libraries/XMCLib/inc\xmc_usic.h ****  * 
1652:C:/Users/lgg/Desktop/hithanbo/dave_ws/lgg_xmc/Libraries/XMCLib/inc\xmc_usic.h ****  * \par<b>Related APIs:</b><BR>
1653:C:/Users/lgg/Desktop/hithanbo/dave_ws/lgg_xmc/Libraries/XMCLib/inc\xmc_usic.h ****  * XMC_USIC_CH_TXFIFO_Flush(), XMC_USIC_CH_TXFIFO_PutData() \n\n\n
1654:C:/Users/lgg/Desktop/hithanbo/dave_ws/lgg_xmc/Libraries/XMCLib/inc\xmc_usic.h ****  */
1655:C:/Users/lgg/Desktop/hithanbo/dave_ws/lgg_xmc/Libraries/XMCLib/inc\xmc_usic.h **** __STATIC_INLINE uint32_t XMC_USIC_CH_TXFIFO_GetLevel(XMC_USIC_CH_t *const channel)
1656:C:/Users/lgg/Desktop/hithanbo/dave_ws/lgg_xmc/Libraries/XMCLib/inc\xmc_usic.h **** {
1657:C:/Users/lgg/Desktop/hithanbo/dave_ws/lgg_xmc/Libraries/XMCLib/inc\xmc_usic.h ****   return ((uint32_t)(channel->TRBSR & USIC_CH_TRBSR_TBFLVL_Msk) >> USIC_CH_TRBSR_TBFLVL_Pos);
1658:C:/Users/lgg/Desktop/hithanbo/dave_ws/lgg_xmc/Libraries/XMCLib/inc\xmc_usic.h **** }
1659:C:/Users/lgg/Desktop/hithanbo/dave_ws/lgg_xmc/Libraries/XMCLib/inc\xmc_usic.h **** 
1660:C:/Users/lgg/Desktop/hithanbo/dave_ws/lgg_xmc/Libraries/XMCLib/inc\xmc_usic.h **** /**
1661:C:/Users/lgg/Desktop/hithanbo/dave_ws/lgg_xmc/Libraries/XMCLib/inc\xmc_usic.h ****  * @param channel Pointer to USIC channel handler of type @ref XMC_USIC_CH_t \n
1662:C:/Users/lgg/Desktop/hithanbo/dave_ws/lgg_xmc/Libraries/XMCLib/inc\xmc_usic.h ****  * 				   \b Range: @ref XMC_USIC0_CH0, @ref XMC_USIC0_CH1 to @ref XMC_USIC2_CH1 based on device su
1663:C:/Users/lgg/Desktop/hithanbo/dave_ws/lgg_xmc/Libraries/XMCLib/inc\xmc_usic.h ****  * @return Status of standard transmit and transmit buffer error events. @ref XMC_USIC_CH_TXFIFO_EV
1664:C:/Users/lgg/Desktop/hithanbo/dave_ws/lgg_xmc/Libraries/XMCLib/inc\xmc_usic.h ****  * 
1665:C:/Users/lgg/Desktop/hithanbo/dave_ws/lgg_xmc/Libraries/XMCLib/inc\xmc_usic.h ****  * \par<b>Description</b><br>
1666:C:/Users/lgg/Desktop/hithanbo/dave_ws/lgg_xmc/Libraries/XMCLib/inc\xmc_usic.h ****  * Gets the transmit FIFO event status. \n\n
1667:C:/Users/lgg/Desktop/hithanbo/dave_ws/lgg_xmc/Libraries/XMCLib/inc\xmc_usic.h ****  * Gives the status of transmit FIFO standard transmit buffer event and transmit buffer error event
1668:C:/Users/lgg/Desktop/hithanbo/dave_ws/lgg_xmc/Libraries/XMCLib/inc\xmc_usic.h ****  * The status bits are located at their bit positions in the TRBSR register in the returned value.
1669:C:/Users/lgg/Desktop/hithanbo/dave_ws/lgg_xmc/Libraries/XMCLib/inc\xmc_usic.h ****  * User can make use of the @ref XMC_USIC_CH_TXFIFO_EVENT_t enumeration for checking the status of 
1670:C:/Users/lgg/Desktop/hithanbo/dave_ws/lgg_xmc/Libraries/XMCLib/inc\xmc_usic.h ****  * The status can be found by using the bitwise AND operation on the returned value with the enumer
1671:C:/Users/lgg/Desktop/hithanbo/dave_ws/lgg_xmc/Libraries/XMCLib/inc\xmc_usic.h ****  * 
1672:C:/Users/lgg/Desktop/hithanbo/dave_ws/lgg_xmc/Libraries/XMCLib/inc\xmc_usic.h ****  * Note: Event status flags should be cleared by the user explicitly.
1673:C:/Users/lgg/Desktop/hithanbo/dave_ws/lgg_xmc/Libraries/XMCLib/inc\xmc_usic.h ****  *
1674:C:/Users/lgg/Desktop/hithanbo/dave_ws/lgg_xmc/Libraries/XMCLib/inc\xmc_usic.h ****  * \par<b>Related APIs:</b><BR>
1675:C:/Users/lgg/Desktop/hithanbo/dave_ws/lgg_xmc/Libraries/XMCLib/inc\xmc_usic.h ****  * XMC_USIC_CH_TXFIFO_ClearEvent() \n\n\n
1676:C:/Users/lgg/Desktop/hithanbo/dave_ws/lgg_xmc/Libraries/XMCLib/inc\xmc_usic.h ****  */
1677:C:/Users/lgg/Desktop/hithanbo/dave_ws/lgg_xmc/Libraries/XMCLib/inc\xmc_usic.h **** __STATIC_INLINE uint32_t XMC_USIC_CH_TXFIFO_GetEvent(XMC_USIC_CH_t *const channel)
1678:C:/Users/lgg/Desktop/hithanbo/dave_ws/lgg_xmc/Libraries/XMCLib/inc\xmc_usic.h **** {
1679:C:/Users/lgg/Desktop/hithanbo/dave_ws/lgg_xmc/Libraries/XMCLib/inc\xmc_usic.h ****   return (uint32_t)((channel->TRBSR) & (USIC_CH_TRBSR_STBI_Msk |
1680:C:/Users/lgg/Desktop/hithanbo/dave_ws/lgg_xmc/Libraries/XMCLib/inc\xmc_usic.h ****                               USIC_CH_TRBSR_TBERI_Msk));
1681:C:/Users/lgg/Desktop/hithanbo/dave_ws/lgg_xmc/Libraries/XMCLib/inc\xmc_usic.h **** }
1682:C:/Users/lgg/Desktop/hithanbo/dave_ws/lgg_xmc/Libraries/XMCLib/inc\xmc_usic.h **** 
1683:C:/Users/lgg/Desktop/hithanbo/dave_ws/lgg_xmc/Libraries/XMCLib/inc\xmc_usic.h **** /**
1684:C:/Users/lgg/Desktop/hithanbo/dave_ws/lgg_xmc/Libraries/XMCLib/inc\xmc_usic.h ****  * @param channel Pointer to USIC channel handler of type @ref XMC_USIC_CH_t \n
1685:C:/Users/lgg/Desktop/hithanbo/dave_ws/lgg_xmc/Libraries/XMCLib/inc\xmc_usic.h ****  * 				   \b Range: @ref XMC_USIC0_CH0, @ref XMC_USIC0_CH1 to @ref XMC_USIC2_CH1 based on device su
1686:C:/Users/lgg/Desktop/hithanbo/dave_ws/lgg_xmc/Libraries/XMCLib/inc\xmc_usic.h ****  * @param  event Transmit FIFO events to be cleared. \n
1687:C:/Users/lgg/Desktop/hithanbo/dave_ws/lgg_xmc/Libraries/XMCLib/inc\xmc_usic.h ****  * 			     \b Range: @ref XMC_USIC_CH_TXFIFO_EVENT_STANDARD, @ref XMC_USIC_CH_TXFIFO_EVENT_ERROR.
1688:C:/Users/lgg/Desktop/hithanbo/dave_ws/lgg_xmc/Libraries/XMCLib/inc\xmc_usic.h ****  * @return None
1689:C:/Users/lgg/Desktop/hithanbo/dave_ws/lgg_xmc/Libraries/XMCLib/inc\xmc_usic.h ****  *
1690:C:/Users/lgg/Desktop/hithanbo/dave_ws/lgg_xmc/Libraries/XMCLib/inc\xmc_usic.h ****  * \par<b>Description</b><br>
1691:C:/Users/lgg/Desktop/hithanbo/dave_ws/lgg_xmc/Libraries/XMCLib/inc\xmc_usic.h ****  * Clears the transmit FIFO event flags in the status register. \n\n
1692:C:/Users/lgg/Desktop/hithanbo/dave_ws/lgg_xmc/Libraries/XMCLib/inc\xmc_usic.h ****  * USIC channel peripheral does not clear the event flags after they are read.
1693:C:/Users/lgg/Desktop/hithanbo/dave_ws/lgg_xmc/Libraries/XMCLib/inc\xmc_usic.h ****  * This API clears the events provided in the \a mask value. 
1694:C:/Users/lgg/Desktop/hithanbo/dave_ws/lgg_xmc/Libraries/XMCLib/inc\xmc_usic.h ****  * XMC_USIC_CH_TXFIFO_EVENT enumeration can be used as input. Multiple events
1695:C:/Users/lgg/Desktop/hithanbo/dave_ws/lgg_xmc/Libraries/XMCLib/inc\xmc_usic.h ****  * can be cleared by providing a mask value obtained by bitwise OR operation of 
1696:C:/Users/lgg/Desktop/hithanbo/dave_ws/lgg_xmc/Libraries/XMCLib/inc\xmc_usic.h ****  * multiple event enumerations.
1697:C:/Users/lgg/Desktop/hithanbo/dave_ws/lgg_xmc/Libraries/XMCLib/inc\xmc_usic.h ****  *
1698:C:/Users/lgg/Desktop/hithanbo/dave_ws/lgg_xmc/Libraries/XMCLib/inc\xmc_usic.h ****  * \par<b>Related APIs:</b><BR>
1699:C:/Users/lgg/Desktop/hithanbo/dave_ws/lgg_xmc/Libraries/XMCLib/inc\xmc_usic.h ****  * XMC_USIC_CH_TXFIFO_GetEvent() \n\n\n
1700:C:/Users/lgg/Desktop/hithanbo/dave_ws/lgg_xmc/Libraries/XMCLib/inc\xmc_usic.h ****  */
1701:C:/Users/lgg/Desktop/hithanbo/dave_ws/lgg_xmc/Libraries/XMCLib/inc\xmc_usic.h **** __STATIC_INLINE void XMC_USIC_CH_TXFIFO_ClearEvent(XMC_USIC_CH_t *const channel,
1702:C:/Users/lgg/Desktop/hithanbo/dave_ws/lgg_xmc/Libraries/XMCLib/inc\xmc_usic.h ****                                                    const uint32_t event)
1703:C:/Users/lgg/Desktop/hithanbo/dave_ws/lgg_xmc/Libraries/XMCLib/inc\xmc_usic.h **** {
1704:C:/Users/lgg/Desktop/hithanbo/dave_ws/lgg_xmc/Libraries/XMCLib/inc\xmc_usic.h ****   channel->TRBSCR = event;
1705:C:/Users/lgg/Desktop/hithanbo/dave_ws/lgg_xmc/Libraries/XMCLib/inc\xmc_usic.h **** }
1706:C:/Users/lgg/Desktop/hithanbo/dave_ws/lgg_xmc/Libraries/XMCLib/inc\xmc_usic.h **** 
1707:C:/Users/lgg/Desktop/hithanbo/dave_ws/lgg_xmc/Libraries/XMCLib/inc\xmc_usic.h **** /**
1708:C:/Users/lgg/Desktop/hithanbo/dave_ws/lgg_xmc/Libraries/XMCLib/inc\xmc_usic.h ****  * @param channel Pointer to USIC channel handler of type @ref XMC_USIC_CH_t \n
1709:C:/Users/lgg/Desktop/hithanbo/dave_ws/lgg_xmc/Libraries/XMCLib/inc\xmc_usic.h ****  * 				   \b Range: @ref XMC_USIC0_CH0, @ref XMC_USIC0_CH1 to @ref XMC_USIC2_CH1 based on device su
1710:C:/Users/lgg/Desktop/hithanbo/dave_ws/lgg_xmc/Libraries/XMCLib/inc\xmc_usic.h ****  * @param data_pointer Start position inside the FIFO buffer. \n
1711:C:/Users/lgg/Desktop/hithanbo/dave_ws/lgg_xmc/Libraries/XMCLib/inc\xmc_usic.h ****  * 		\b Range: 0 to 63.
1712:C:/Users/lgg/Desktop/hithanbo/dave_ws/lgg_xmc/Libraries/XMCLib/inc\xmc_usic.h ****  * @param size Required size of the receive FIFO. \n
1713:C:/Users/lgg/Desktop/hithanbo/dave_ws/lgg_xmc/Libraries/XMCLib/inc\xmc_usic.h ****  * 		\b Range: @ref XMC_USIC_CH_FIFO_DISABLED, @ref XMC_USIC_CH_FIFO_SIZE_2WORDS.. @ref XMC_USIC_CH
1714:C:/Users/lgg/Desktop/hithanbo/dave_ws/lgg_xmc/Libraries/XMCLib/inc\xmc_usic.h ****  * @param limit Threshold of receive FIFO filling level to be considered for generating events. \n
1715:C:/Users/lgg/Desktop/hithanbo/dave_ws/lgg_xmc/Libraries/XMCLib/inc\xmc_usic.h ****  * 		\b Range: 0 to \a size -1.
1716:C:/Users/lgg/Desktop/hithanbo/dave_ws/lgg_xmc/Libraries/XMCLib/inc\xmc_usic.h ****  * @return None
1717:C:/Users/lgg/Desktop/hithanbo/dave_ws/lgg_xmc/Libraries/XMCLib/inc\xmc_usic.h ****  *
1718:C:/Users/lgg/Desktop/hithanbo/dave_ws/lgg_xmc/Libraries/XMCLib/inc\xmc_usic.h ****  * \par<b>Description</b><br>
1719:C:/Users/lgg/Desktop/hithanbo/dave_ws/lgg_xmc/Libraries/XMCLib/inc\xmc_usic.h ****  * Configures the receive FIFO. \n\n
1720:C:/Users/lgg/Desktop/hithanbo/dave_ws/lgg_xmc/Libraries/XMCLib/inc\xmc_usic.h ****  * Receive FIFO is the subset of a common FIFO sized 64 words. This FIFO is shared between 2 channe
1721:C:/Users/lgg/Desktop/hithanbo/dave_ws/lgg_xmc/Libraries/XMCLib/inc\xmc_usic.h ****  * Each channel can share the FIFO for transmission and reception. \a data_pointer represents the s
1722:C:/Users/lgg/Desktop/hithanbo/dave_ws/lgg_xmc/Libraries/XMCLib/inc\xmc_usic.h ****  * from where received data can be put. \a size represents the size of receive FIFO as a multiple o
1723:C:/Users/lgg/Desktop/hithanbo/dave_ws/lgg_xmc/Libraries/XMCLib/inc\xmc_usic.h ****  * Since the FIFO is shared between 2 USIC channels, FIFO size should be carefully selected. A FIFO
1724:C:/Users/lgg/Desktop/hithanbo/dave_ws/lgg_xmc/Libraries/XMCLib/inc\xmc_usic.h ****  * event or alternative receive buffer event is generated when the FIFO filling level exceeds the \
1725:C:/Users/lgg/Desktop/hithanbo/dave_ws/lgg_xmc/Libraries/XMCLib/inc\xmc_usic.h ****  *
1726:C:/Users/lgg/Desktop/hithanbo/dave_ws/lgg_xmc/Libraries/XMCLib/inc\xmc_usic.h ****  * \par<b>Related APIs:</b><BR>
1727:C:/Users/lgg/Desktop/hithanbo/dave_ws/lgg_xmc/Libraries/XMCLib/inc\xmc_usic.h ****  * XMC_USIC_CH_RXFIFO_EnableEvent(), XMC_USIC_CH_RXFIFO_SetInterruptNodePointer() \n\n\n
1728:C:/Users/lgg/Desktop/hithanbo/dave_ws/lgg_xmc/Libraries/XMCLib/inc\xmc_usic.h **** */
1729:C:/Users/lgg/Desktop/hithanbo/dave_ws/lgg_xmc/Libraries/XMCLib/inc\xmc_usic.h **** void XMC_USIC_CH_RXFIFO_Configure(XMC_USIC_CH_t *const channel,
1730:C:/Users/lgg/Desktop/hithanbo/dave_ws/lgg_xmc/Libraries/XMCLib/inc\xmc_usic.h ****                                   const uint32_t data_pointer,
1731:C:/Users/lgg/Desktop/hithanbo/dave_ws/lgg_xmc/Libraries/XMCLib/inc\xmc_usic.h ****                                   const XMC_USIC_CH_FIFO_SIZE_t size,
1732:C:/Users/lgg/Desktop/hithanbo/dave_ws/lgg_xmc/Libraries/XMCLib/inc\xmc_usic.h ****                                   const uint32_t limit);
1733:C:/Users/lgg/Desktop/hithanbo/dave_ws/lgg_xmc/Libraries/XMCLib/inc\xmc_usic.h **** 
1734:C:/Users/lgg/Desktop/hithanbo/dave_ws/lgg_xmc/Libraries/XMCLib/inc\xmc_usic.h **** /**
1735:C:/Users/lgg/Desktop/hithanbo/dave_ws/lgg_xmc/Libraries/XMCLib/inc\xmc_usic.h ****  * @param channel Pointer to USIC channel handler of type @ref XMC_USIC_CH_t \n
1736:C:/Users/lgg/Desktop/hithanbo/dave_ws/lgg_xmc/Libraries/XMCLib/inc\xmc_usic.h ****  * 				   \b Range: @ref XMC_USIC0_CH0, @ref XMC_USIC0_CH1 to @ref XMC_USIC2_CH1 based on device su
1737:C:/Users/lgg/Desktop/hithanbo/dave_ws/lgg_xmc/Libraries/XMCLib/inc\xmc_usic.h ****  * @param size Required size of the receive FIFO. \n
1738:C:/Users/lgg/Desktop/hithanbo/dave_ws/lgg_xmc/Libraries/XMCLib/inc\xmc_usic.h ****  * 		\b Range: @ref XMC_USIC_CH_FIFO_DISABLED, @ref XMC_USIC_CH_FIFO_SIZE_2WORDS.. @ref XMC_USIC_CH
1739:C:/Users/lgg/Desktop/hithanbo/dave_ws/lgg_xmc/Libraries/XMCLib/inc\xmc_usic.h ****  * @param limit Threshold for receive FIFO filling level to be considered for generating events. \n
1740:C:/Users/lgg/Desktop/hithanbo/dave_ws/lgg_xmc/Libraries/XMCLib/inc\xmc_usic.h ****  * 		\b Range: 0 to \a size -1.
1741:C:/Users/lgg/Desktop/hithanbo/dave_ws/lgg_xmc/Libraries/XMCLib/inc\xmc_usic.h ****  * @return None
1742:C:/Users/lgg/Desktop/hithanbo/dave_ws/lgg_xmc/Libraries/XMCLib/inc\xmc_usic.h ****  *
1743:C:/Users/lgg/Desktop/hithanbo/dave_ws/lgg_xmc/Libraries/XMCLib/inc\xmc_usic.h ****  * \par<b>Description</b><br>
1744:C:/Users/lgg/Desktop/hithanbo/dave_ws/lgg_xmc/Libraries/XMCLib/inc\xmc_usic.h ****  * Sets the size and trigger limit for the receive FIFO. \n\n
1745:C:/Users/lgg/Desktop/hithanbo/dave_ws/lgg_xmc/Libraries/XMCLib/inc\xmc_usic.h ****  * The API is not to be called for initializing the receive FIFO. The API shall be used for the 
1746:C:/Users/lgg/Desktop/hithanbo/dave_ws/lgg_xmc/Libraries/XMCLib/inc\xmc_usic.h ****  * runtime change of receive FIFO trigger limit. FIFO start position will not be affected on execut
1747:C:/Users/lgg/Desktop/hithanbo/dave_ws/lgg_xmc/Libraries/XMCLib/inc\xmc_usic.h ****  *
1748:C:/Users/lgg/Desktop/hithanbo/dave_ws/lgg_xmc/Libraries/XMCLib/inc\xmc_usic.h ****  * \par<b>Related APIs:</b><BR>
1749:C:/Users/lgg/Desktop/hithanbo/dave_ws/lgg_xmc/Libraries/XMCLib/inc\xmc_usic.h ****  * XMC_USIC_CH_TXFIFO_SetSizeTriggerLimit()\ n\n\n
1750:C:/Users/lgg/Desktop/hithanbo/dave_ws/lgg_xmc/Libraries/XMCLib/inc\xmc_usic.h ****  */
1751:C:/Users/lgg/Desktop/hithanbo/dave_ws/lgg_xmc/Libraries/XMCLib/inc\xmc_usic.h **** void XMC_USIC_CH_RXFIFO_SetSizeTriggerLimit(XMC_USIC_CH_t *const channel,
1752:C:/Users/lgg/Desktop/hithanbo/dave_ws/lgg_xmc/Libraries/XMCLib/inc\xmc_usic.h ****                                             const XMC_USIC_CH_FIFO_SIZE_t size,
1753:C:/Users/lgg/Desktop/hithanbo/dave_ws/lgg_xmc/Libraries/XMCLib/inc\xmc_usic.h ****                                             const uint32_t limit);
1754:C:/Users/lgg/Desktop/hithanbo/dave_ws/lgg_xmc/Libraries/XMCLib/inc\xmc_usic.h **** 
1755:C:/Users/lgg/Desktop/hithanbo/dave_ws/lgg_xmc/Libraries/XMCLib/inc\xmc_usic.h **** /**
1756:C:/Users/lgg/Desktop/hithanbo/dave_ws/lgg_xmc/Libraries/XMCLib/inc\xmc_usic.h ****  * @param channel Pointer to USIC channel handler of type @ref XMC_USIC_CH_t \n
1757:C:/Users/lgg/Desktop/hithanbo/dave_ws/lgg_xmc/Libraries/XMCLib/inc\xmc_usic.h ****  * 				   \b Range: @ref XMC_USIC0_CH0, @ref XMC_USIC0_CH1 to @ref XMC_USIC2_CH1 based on device su
1758:C:/Users/lgg/Desktop/hithanbo/dave_ws/lgg_xmc/Libraries/XMCLib/inc\xmc_usic.h ****  * @param event Events to be enabled. Multiple events can be bitwise OR combined. @ref XMC_USIC_CH_
1759:C:/Users/lgg/Desktop/hithanbo/dave_ws/lgg_xmc/Libraries/XMCLib/inc\xmc_usic.h ****  * @return None
1760:C:/Users/lgg/Desktop/hithanbo/dave_ws/lgg_xmc/Libraries/XMCLib/inc\xmc_usic.h ****  *
1761:C:/Users/lgg/Desktop/hithanbo/dave_ws/lgg_xmc/Libraries/XMCLib/inc\xmc_usic.h ****  * \par<b>Description</b><br>
1762:C:/Users/lgg/Desktop/hithanbo/dave_ws/lgg_xmc/Libraries/XMCLib/inc\xmc_usic.h ****  * Enables the interrupt events related to transmit FIFO. \n\n
1763:C:/Users/lgg/Desktop/hithanbo/dave_ws/lgg_xmc/Libraries/XMCLib/inc\xmc_usic.h ****  * Event bitmasks can be constructed using the enumeration @ref XMC_USIC_CH_RXFIFO_EVENT_CONF_t.
1764:C:/Users/lgg/Desktop/hithanbo/dave_ws/lgg_xmc/Libraries/XMCLib/inc\xmc_usic.h ****  * Multiple events can be enabled by providing multiple events in a single call. For providing 
1765:C:/Users/lgg/Desktop/hithanbo/dave_ws/lgg_xmc/Libraries/XMCLib/inc\xmc_usic.h ****  * multiple events, combine the events using bitwise OR operation.<br>
1766:C:/Users/lgg/Desktop/hithanbo/dave_ws/lgg_xmc/Libraries/XMCLib/inc\xmc_usic.h ****  * 
1767:C:/Users/lgg/Desktop/hithanbo/dave_ws/lgg_xmc/Libraries/XMCLib/inc\xmc_usic.h ****  * Note: API only enables the events. For interrupt generation, interrupt node must be configured a
1768:C:/Users/lgg/Desktop/hithanbo/dave_ws/lgg_xmc/Libraries/XMCLib/inc\xmc_usic.h ****  * must be enabled.
1769:C:/Users/lgg/Desktop/hithanbo/dave_ws/lgg_xmc/Libraries/XMCLib/inc\xmc_usic.h ****  *
1770:C:/Users/lgg/Desktop/hithanbo/dave_ws/lgg_xmc/Libraries/XMCLib/inc\xmc_usic.h ****  * \par<b>Related APIs:</b><BR>
1771:C:/Users/lgg/Desktop/hithanbo/dave_ws/lgg_xmc/Libraries/XMCLib/inc\xmc_usic.h ****  * XMC_USIC_CH_RXFIFO_SetInterruptNodePointer() \n\n\n
1772:C:/Users/lgg/Desktop/hithanbo/dave_ws/lgg_xmc/Libraries/XMCLib/inc\xmc_usic.h ****  */
1773:C:/Users/lgg/Desktop/hithanbo/dave_ws/lgg_xmc/Libraries/XMCLib/inc\xmc_usic.h **** __STATIC_INLINE void XMC_USIC_CH_RXFIFO_EnableEvent(XMC_USIC_CH_t *const channel, const uint32_t ev
1774:C:/Users/lgg/Desktop/hithanbo/dave_ws/lgg_xmc/Libraries/XMCLib/inc\xmc_usic.h **** {
1775:C:/Users/lgg/Desktop/hithanbo/dave_ws/lgg_xmc/Libraries/XMCLib/inc\xmc_usic.h ****   channel->RBCTR |= event;
1776:C:/Users/lgg/Desktop/hithanbo/dave_ws/lgg_xmc/Libraries/XMCLib/inc\xmc_usic.h **** }
1777:C:/Users/lgg/Desktop/hithanbo/dave_ws/lgg_xmc/Libraries/XMCLib/inc\xmc_usic.h **** 
1778:C:/Users/lgg/Desktop/hithanbo/dave_ws/lgg_xmc/Libraries/XMCLib/inc\xmc_usic.h **** 
1779:C:/Users/lgg/Desktop/hithanbo/dave_ws/lgg_xmc/Libraries/XMCLib/inc\xmc_usic.h **** /**
1780:C:/Users/lgg/Desktop/hithanbo/dave_ws/lgg_xmc/Libraries/XMCLib/inc\xmc_usic.h ****  * @param channel Pointer to USIC channel handler of type @ref XMC_USIC_CH_t \n
1781:C:/Users/lgg/Desktop/hithanbo/dave_ws/lgg_xmc/Libraries/XMCLib/inc\xmc_usic.h ****  * 				   \b Range: @ref XMC_USIC0_CH0, @ref XMC_USIC0_CH1 to @ref XMC_USIC2_CH1 based on device su
1782:C:/Users/lgg/Desktop/hithanbo/dave_ws/lgg_xmc/Libraries/XMCLib/inc\xmc_usic.h ****  * @param event Events to be disabled. \n
1783:C:/Users/lgg/Desktop/hithanbo/dave_ws/lgg_xmc/Libraries/XMCLib/inc\xmc_usic.h ****  * 			\b Range: @ref XMC_USIC_CH_RXFIFO_EVENT_CONF_STANDARD, @ref XMC_USIC_CH_RXFIFO_EVENT_CONF_ERR
1784:C:/Users/lgg/Desktop/hithanbo/dave_ws/lgg_xmc/Libraries/XMCLib/inc\xmc_usic.h ****  * 			@ref XMC_USIC_CH_RXFIFO_EVENT_CONF_ALTERNATE.
1785:C:/Users/lgg/Desktop/hithanbo/dave_ws/lgg_xmc/Libraries/XMCLib/inc\xmc_usic.h ****  * @return None
1786:C:/Users/lgg/Desktop/hithanbo/dave_ws/lgg_xmc/Libraries/XMCLib/inc\xmc_usic.h ****  *
1787:C:/Users/lgg/Desktop/hithanbo/dave_ws/lgg_xmc/Libraries/XMCLib/inc\xmc_usic.h ****  * \par<b>Description</b><br>
1788:C:/Users/lgg/Desktop/hithanbo/dave_ws/lgg_xmc/Libraries/XMCLib/inc\xmc_usic.h ****  * Disables the selected interrupt events related to receive FIFO. \n\n
1789:C:/Users/lgg/Desktop/hithanbo/dave_ws/lgg_xmc/Libraries/XMCLib/inc\xmc_usic.h ****  * By disabling the interrupt events, generation of interrupt is stopped. User can poll the event 
1790:C:/Users/lgg/Desktop/hithanbo/dave_ws/lgg_xmc/Libraries/XMCLib/inc\xmc_usic.h ****  * flags from the status register using the API XMC_USIC_CH_RXFIFO_GetEvent(). 
1791:C:/Users/lgg/Desktop/hithanbo/dave_ws/lgg_xmc/Libraries/XMCLib/inc\xmc_usic.h ****  * Event bitmasks can be constructed using the enumeration \a XMC_USIC_CH_RXFIFO_EVENT_CONF. For pr
1792:C:/Users/lgg/Desktop/hithanbo/dave_ws/lgg_xmc/Libraries/XMCLib/inc\xmc_usic.h ****  * multiple events, combine the events using bitwise OR operation.
1793:C:/Users/lgg/Desktop/hithanbo/dave_ws/lgg_xmc/Libraries/XMCLib/inc\xmc_usic.h ****  *
1794:C:/Users/lgg/Desktop/hithanbo/dave_ws/lgg_xmc/Libraries/XMCLib/inc\xmc_usic.h ****  * \par<b>Related APIs:</b><BR>
1795:C:/Users/lgg/Desktop/hithanbo/dave_ws/lgg_xmc/Libraries/XMCLib/inc\xmc_usic.h ****  * XMC_USIC_CH_RXFIFO_GetEvent(), XMC_USIC_CH_RXFIFO_EnableEvent() \n\n\n
1796:C:/Users/lgg/Desktop/hithanbo/dave_ws/lgg_xmc/Libraries/XMCLib/inc\xmc_usic.h ****  */
1797:C:/Users/lgg/Desktop/hithanbo/dave_ws/lgg_xmc/Libraries/XMCLib/inc\xmc_usic.h **** __STATIC_INLINE void XMC_USIC_CH_RXFIFO_DisableEvent(XMC_USIC_CH_t *const channel, const uint32_t e
1798:C:/Users/lgg/Desktop/hithanbo/dave_ws/lgg_xmc/Libraries/XMCLib/inc\xmc_usic.h **** {
1799:C:/Users/lgg/Desktop/hithanbo/dave_ws/lgg_xmc/Libraries/XMCLib/inc\xmc_usic.h ****   channel->RBCTR &= (uint32_t)~event;
1800:C:/Users/lgg/Desktop/hithanbo/dave_ws/lgg_xmc/Libraries/XMCLib/inc\xmc_usic.h **** }
1801:C:/Users/lgg/Desktop/hithanbo/dave_ws/lgg_xmc/Libraries/XMCLib/inc\xmc_usic.h **** 
1802:C:/Users/lgg/Desktop/hithanbo/dave_ws/lgg_xmc/Libraries/XMCLib/inc\xmc_usic.h **** /**
1803:C:/Users/lgg/Desktop/hithanbo/dave_ws/lgg_xmc/Libraries/XMCLib/inc\xmc_usic.h ****  * @param channel Pointer to USIC channel handler of type @ref XMC_USIC_CH_t \n
1804:C:/Users/lgg/Desktop/hithanbo/dave_ws/lgg_xmc/Libraries/XMCLib/inc\xmc_usic.h ****  * 				   \b Range: @ref XMC_USIC0_CH0, @ref XMC_USIC0_CH1 to @ref XMC_USIC2_CH1 based on device su
1805:C:/Users/lgg/Desktop/hithanbo/dave_ws/lgg_xmc/Libraries/XMCLib/inc\xmc_usic.h ****  * @param interrupt_node Node pointer representing the receive FIFO events. \n
1806:C:/Users/lgg/Desktop/hithanbo/dave_ws/lgg_xmc/Libraries/XMCLib/inc\xmc_usic.h ****  * 					\b Range: @ref XMC_USIC_CH_RXFIFO_INTERRUPT_NODE_POINTER_STANDARD,
1807:C:/Users/lgg/Desktop/hithanbo/dave_ws/lgg_xmc/Libraries/XMCLib/inc\xmc_usic.h ****  * 					@ref XMC_USIC_CH_RXFIFO_INTERRUPT_NODE_POINTER_ALTERNATE
1808:C:/Users/lgg/Desktop/hithanbo/dave_ws/lgg_xmc/Libraries/XMCLib/inc\xmc_usic.h ****  * @param service_request The service request to be used for interrupt generation.\n
1809:C:/Users/lgg/Desktop/hithanbo/dave_ws/lgg_xmc/Libraries/XMCLib/inc\xmc_usic.h ****  * 					\b Range: 0 to 5.
1810:C:/Users/lgg/Desktop/hithanbo/dave_ws/lgg_xmc/Libraries/XMCLib/inc\xmc_usic.h ****  * @return None
1811:C:/Users/lgg/Desktop/hithanbo/dave_ws/lgg_xmc/Libraries/XMCLib/inc\xmc_usic.h ****  *
1812:C:/Users/lgg/Desktop/hithanbo/dave_ws/lgg_xmc/Libraries/XMCLib/inc\xmc_usic.h ****  * \par<b>Description</b><br>
1813:C:/Users/lgg/Desktop/hithanbo/dave_ws/lgg_xmc/Libraries/XMCLib/inc\xmc_usic.h ****  * Sets an interrupt node for the receive FIFO events. \n\n
1814:C:/Users/lgg/Desktop/hithanbo/dave_ws/lgg_xmc/Libraries/XMCLib/inc\xmc_usic.h ****  * A node pointer represents one or more interrupt events. Service request represents the interrupt
1815:C:/Users/lgg/Desktop/hithanbo/dave_ws/lgg_xmc/Libraries/XMCLib/inc\xmc_usic.h ****  * among the 6 interrupt nodes available for USIC module.
1816:C:/Users/lgg/Desktop/hithanbo/dave_ws/lgg_xmc/Libraries/XMCLib/inc\xmc_usic.h ****  * API configures the service request to be used for interrupt generation for the events selected.
1817:C:/Users/lgg/Desktop/hithanbo/dave_ws/lgg_xmc/Libraries/XMCLib/inc\xmc_usic.h ****  * A receive FIFO event can generate an interrupt only if the interrupt node is configured for the 
1818:C:/Users/lgg/Desktop/hithanbo/dave_ws/lgg_xmc/Libraries/XMCLib/inc\xmc_usic.h ****  * the interrupt generation is enabled for the event. For example, transmit FIFO standard transmit 
1819:C:/Users/lgg/Desktop/hithanbo/dave_ws/lgg_xmc/Libraries/XMCLib/inc\xmc_usic.h ****  * interrupt is generated if the interrupt node for the same is set and interrupt is enabled.<br>
1820:C:/Users/lgg/Desktop/hithanbo/dave_ws/lgg_xmc/Libraries/XMCLib/inc\xmc_usic.h ****  *
1821:C:/Users/lgg/Desktop/hithanbo/dave_ws/lgg_xmc/Libraries/XMCLib/inc\xmc_usic.h ****  * Note: NVIC node should be explicitly enabled for the interrupt generation.
1822:C:/Users/lgg/Desktop/hithanbo/dave_ws/lgg_xmc/Libraries/XMCLib/inc\xmc_usic.h ****  *
1823:C:/Users/lgg/Desktop/hithanbo/dave_ws/lgg_xmc/Libraries/XMCLib/inc\xmc_usic.h ****  * \par<b>Related APIs:</b><BR>
1824:C:/Users/lgg/Desktop/hithanbo/dave_ws/lgg_xmc/Libraries/XMCLib/inc\xmc_usic.h ****  * XMC_USIC_CH_RXFIFO_EnableEvent() \n\n\n
1825:C:/Users/lgg/Desktop/hithanbo/dave_ws/lgg_xmc/Libraries/XMCLib/inc\xmc_usic.h ****  */
1826:C:/Users/lgg/Desktop/hithanbo/dave_ws/lgg_xmc/Libraries/XMCLib/inc\xmc_usic.h **** void XMC_USIC_CH_RXFIFO_SetInterruptNodePointer(XMC_USIC_CH_t *const channel,
1827:C:/Users/lgg/Desktop/hithanbo/dave_ws/lgg_xmc/Libraries/XMCLib/inc\xmc_usic.h ****                                                 const XMC_USIC_CH_RXFIFO_INTERRUPT_NODE_POINTER_t i
1828:C:/Users/lgg/Desktop/hithanbo/dave_ws/lgg_xmc/Libraries/XMCLib/inc\xmc_usic.h ****                                                 const uint32_t service_request);
1829:C:/Users/lgg/Desktop/hithanbo/dave_ws/lgg_xmc/Libraries/XMCLib/inc\xmc_usic.h **** 
1830:C:/Users/lgg/Desktop/hithanbo/dave_ws/lgg_xmc/Libraries/XMCLib/inc\xmc_usic.h **** /**
1831:C:/Users/lgg/Desktop/hithanbo/dave_ws/lgg_xmc/Libraries/XMCLib/inc\xmc_usic.h ****  * @param channel Pointer to USIC channel handler of type @ref XMC_USIC_CH_t \n
1832:C:/Users/lgg/Desktop/hithanbo/dave_ws/lgg_xmc/Libraries/XMCLib/inc\xmc_usic.h ****  * 				   \b Range: @ref XMC_USIC0_CH0, @ref XMC_USIC0_CH1 to @ref XMC_USIC2_CH1 based on device su
1833:C:/Users/lgg/Desktop/hithanbo/dave_ws/lgg_xmc/Libraries/XMCLib/inc\xmc_usic.h ****  * @return Value read from the receive FIFO. \n
1834:C:/Users/lgg/Desktop/hithanbo/dave_ws/lgg_xmc/Libraries/XMCLib/inc\xmc_usic.h ****  * 			\b Range: 16bit data. Length of data depends on the word length configuration.
1835:C:/Users/lgg/Desktop/hithanbo/dave_ws/lgg_xmc/Libraries/XMCLib/inc\xmc_usic.h ****  *
1836:C:/Users/lgg/Desktop/hithanbo/dave_ws/lgg_xmc/Libraries/XMCLib/inc\xmc_usic.h ****  * \par<b>Description</b><br>
1837:C:/Users/lgg/Desktop/hithanbo/dave_ws/lgg_xmc/Libraries/XMCLib/inc\xmc_usic.h ****  * Gets data from the receive FIFO. \n\n
1838:C:/Users/lgg/Desktop/hithanbo/dave_ws/lgg_xmc/Libraries/XMCLib/inc\xmc_usic.h ****  * Receive FIFO should be read only if data is availble in the FIFO. This can be checked using
1839:C:/Users/lgg/Desktop/hithanbo/dave_ws/lgg_xmc/Libraries/XMCLib/inc\xmc_usic.h ****  * the API XMC_USIC_CH_RXFIFO_IsEmpty(). Receive FIFO error flag will be set if an attempt is made
1840:C:/Users/lgg/Desktop/hithanbo/dave_ws/lgg_xmc/Libraries/XMCLib/inc\xmc_usic.h ****  * to read from an empty receive FIFO. To read all the received data, user should keep reading data
1841:C:/Users/lgg/Desktop/hithanbo/dave_ws/lgg_xmc/Libraries/XMCLib/inc\xmc_usic.h ****  * until receive FIFO is empty.
1842:C:/Users/lgg/Desktop/hithanbo/dave_ws/lgg_xmc/Libraries/XMCLib/inc\xmc_usic.h ****  *
1843:C:/Users/lgg/Desktop/hithanbo/dave_ws/lgg_xmc/Libraries/XMCLib/inc\xmc_usic.h ****  * \par<b>Related APIs:</b><BR>
1844:C:/Users/lgg/Desktop/hithanbo/dave_ws/lgg_xmc/Libraries/XMCLib/inc\xmc_usic.h ****  * XMC_USIC_CH_RXFIFO_ClearEvent() \n\n\n
1845:C:/Users/lgg/Desktop/hithanbo/dave_ws/lgg_xmc/Libraries/XMCLib/inc\xmc_usic.h ****  */
1846:C:/Users/lgg/Desktop/hithanbo/dave_ws/lgg_xmc/Libraries/XMCLib/inc\xmc_usic.h **** __STATIC_INLINE uint16_t XMC_USIC_CH_RXFIFO_GetData(XMC_USIC_CH_t *const channel)
1847:C:/Users/lgg/Desktop/hithanbo/dave_ws/lgg_xmc/Libraries/XMCLib/inc\xmc_usic.h **** {
1848:C:/Users/lgg/Desktop/hithanbo/dave_ws/lgg_xmc/Libraries/XMCLib/inc\xmc_usic.h ****   return (uint16_t)(channel->OUTR);
1849:C:/Users/lgg/Desktop/hithanbo/dave_ws/lgg_xmc/Libraries/XMCLib/inc\xmc_usic.h **** }
1850:C:/Users/lgg/Desktop/hithanbo/dave_ws/lgg_xmc/Libraries/XMCLib/inc\xmc_usic.h **** 
1851:C:/Users/lgg/Desktop/hithanbo/dave_ws/lgg_xmc/Libraries/XMCLib/inc\xmc_usic.h **** /**
1852:C:/Users/lgg/Desktop/hithanbo/dave_ws/lgg_xmc/Libraries/XMCLib/inc\xmc_usic.h ****  * @param channel Pointer to USIC channel handler of type @ref XMC_USIC_CH_t \n
1853:C:/Users/lgg/Desktop/hithanbo/dave_ws/lgg_xmc/Libraries/XMCLib/inc\xmc_usic.h ****  * 				   \b Range: @ref XMC_USIC0_CH0, @ref XMC_USIC0_CH1 to @ref XMC_USIC2_CH1 based on device su
1854:C:/Users/lgg/Desktop/hithanbo/dave_ws/lgg_xmc/Libraries/XMCLib/inc\xmc_usic.h ****  * @return None
1855:C:/Users/lgg/Desktop/hithanbo/dave_ws/lgg_xmc/Libraries/XMCLib/inc\xmc_usic.h ****  *
1856:C:/Users/lgg/Desktop/hithanbo/dave_ws/lgg_xmc/Libraries/XMCLib/inc\xmc_usic.h ****  * \par<b>Description</b><br>
1857:C:/Users/lgg/Desktop/hithanbo/dave_ws/lgg_xmc/Libraries/XMCLib/inc\xmc_usic.h ****  * Clears the contents of receive FIFO. \n\n
1858:C:/Users/lgg/Desktop/hithanbo/dave_ws/lgg_xmc/Libraries/XMCLib/inc\xmc_usic.h ****  * Receive FIFO contents will be cleared and the filling level will be reset to 0.
1859:C:/Users/lgg/Desktop/hithanbo/dave_ws/lgg_xmc/Libraries/XMCLib/inc\xmc_usic.h ****  * 
1860:C:/Users/lgg/Desktop/hithanbo/dave_ws/lgg_xmc/Libraries/XMCLib/inc\xmc_usic.h ****  * \par<b>Related APIs:</b><BR>
1861:C:/Users/lgg/Desktop/hithanbo/dave_ws/lgg_xmc/Libraries/XMCLib/inc\xmc_usic.h ****  * XMC_USIC_CH_RXFIFO_GetLevel() \n\n\n
1862:C:/Users/lgg/Desktop/hithanbo/dave_ws/lgg_xmc/Libraries/XMCLib/inc\xmc_usic.h ****  */
1863:C:/Users/lgg/Desktop/hithanbo/dave_ws/lgg_xmc/Libraries/XMCLib/inc\xmc_usic.h **** __STATIC_INLINE void XMC_USIC_CH_RXFIFO_Flush(XMC_USIC_CH_t *const channel)
1864:C:/Users/lgg/Desktop/hithanbo/dave_ws/lgg_xmc/Libraries/XMCLib/inc\xmc_usic.h **** {
1865:C:/Users/lgg/Desktop/hithanbo/dave_ws/lgg_xmc/Libraries/XMCLib/inc\xmc_usic.h ****   channel->TRBSCR = (uint32_t)USIC_CH_TRBSCR_FLUSHRB_Msk;
1866:C:/Users/lgg/Desktop/hithanbo/dave_ws/lgg_xmc/Libraries/XMCLib/inc\xmc_usic.h **** }
1867:C:/Users/lgg/Desktop/hithanbo/dave_ws/lgg_xmc/Libraries/XMCLib/inc\xmc_usic.h **** 
1868:C:/Users/lgg/Desktop/hithanbo/dave_ws/lgg_xmc/Libraries/XMCLib/inc\xmc_usic.h **** /**
1869:C:/Users/lgg/Desktop/hithanbo/dave_ws/lgg_xmc/Libraries/XMCLib/inc\xmc_usic.h ****  * @param channel Pointer to USIC channel handler of type @ref XMC_USIC_CH_t \n
1870:C:/Users/lgg/Desktop/hithanbo/dave_ws/lgg_xmc/Libraries/XMCLib/inc\xmc_usic.h ****  * 				   \b Range: @ref XMC_USIC0_CH0, @ref XMC_USIC0_CH1 to @ref XMC_USIC2_CH1 based on device su
