   1              	 .syntax unified
   2              	 .cpu cortex-m4
   3              	 .eabi_attribute 27,3
   4              	 .fpu fpv4-sp-d16
   5              	 .eabi_attribute 20,1
   6              	 .eabi_attribute 21,1
   7              	 .eabi_attribute 23,3
   8              	 .eabi_attribute 24,1
   9              	 .eabi_attribute 25,1
  10              	 .eabi_attribute 26,1
  11              	 .eabi_attribute 30,6
  12              	 .eabi_attribute 34,1
  13              	 .eabi_attribute 18,4
  14              	 .thumb
  15              	 .file "scp.c"
  16              	 .text
  17              	.Ltext0:
  18              	 .cfi_sections .debug_frame
  19              	 .global ascii_1608
  20              	 .section .rodata.ascii_1608,"a",%progbits
  21              	 .align 2
  24              	ascii_1608:
  25 0000 00       	 .byte 0
  26 0001 00       	 .byte 0
  27 0002 00       	 .byte 0
  28 0003 00       	 .byte 0
  29 0004 00       	 .byte 0
  30 0005 00       	 .byte 0
  31 0006 00       	 .byte 0
  32 0007 00       	 .byte 0
  33 0008 00       	 .byte 0
  34 0009 00       	 .byte 0
  35 000a 00       	 .byte 0
  36 000b 00       	 .byte 0
  37 000c 00       	 .byte 0
  38 000d 00       	 .byte 0
  39 000e 00       	 .byte 0
  40 000f 00       	 .byte 0
  41 0010 00       	 .byte 0
  42 0011 00       	 .byte 0
  43 0012 00       	 .byte 0
  44 0013 08       	 .byte 8
  45 0014 08       	 .byte 8
  46 0015 08       	 .byte 8
  47 0016 08       	 .byte 8
  48 0017 08       	 .byte 8
  49 0018 08       	 .byte 8
  50 0019 08       	 .byte 8
  51 001a 00       	 .byte 0
  52 001b 00       	 .byte 0
  53 001c 18       	 .byte 24
  54 001d 18       	 .byte 24
  55 001e 00       	 .byte 0
  56 001f 00       	 .byte 0
  57 0020 00       	 .byte 0
  58 0021 48       	 .byte 72
  59 0022 6C       	 .byte 108
  60 0023 24       	 .byte 36
  61 0024 12       	 .byte 18
  62 0025 00       	 .byte 0
  63 0026 00       	 .byte 0
  64 0027 00       	 .byte 0
  65 0028 00       	 .byte 0
  66 0029 00       	 .byte 0
  67 002a 00       	 .byte 0
  68 002b 00       	 .byte 0
  69 002c 00       	 .byte 0
  70 002d 00       	 .byte 0
  71 002e 00       	 .byte 0
  72 002f 00       	 .byte 0
  73 0030 00       	 .byte 0
  74 0031 00       	 .byte 0
  75 0032 00       	 .byte 0
  76 0033 24       	 .byte 36
  77 0034 24       	 .byte 36
  78 0035 24       	 .byte 36
  79 0036 7F       	 .byte 127
  80 0037 12       	 .byte 18
  81 0038 12       	 .byte 18
  82 0039 12       	 .byte 18
  83 003a 7F       	 .byte 127
  84 003b 12       	 .byte 18
  85 003c 12       	 .byte 18
  86 003d 12       	 .byte 18
  87 003e 00       	 .byte 0
  88 003f 00       	 .byte 0
  89 0040 00       	 .byte 0
  90 0041 00       	 .byte 0
  91 0042 08       	 .byte 8
  92 0043 1C       	 .byte 28
  93 0044 2A       	 .byte 42
  94 0045 2A       	 .byte 42
  95 0046 0A       	 .byte 10
  96 0047 0C       	 .byte 12
  97 0048 18       	 .byte 24
  98 0049 28       	 .byte 40
  99 004a 28       	 .byte 40
 100 004b 2A       	 .byte 42
 101 004c 2A       	 .byte 42
 102 004d 1C       	 .byte 28
 103 004e 08       	 .byte 8
 104 004f 08       	 .byte 8
 105 0050 00       	 .byte 0
 106 0051 00       	 .byte 0
 107 0052 00       	 .byte 0
 108 0053 22       	 .byte 34
 109 0054 25       	 .byte 37
 110 0055 15       	 .byte 21
 111 0056 15       	 .byte 21
 112 0057 15       	 .byte 21
 113 0058 2A       	 .byte 42
 114 0059 58       	 .byte 88
 115 005a 54       	 .byte 84
 116 005b 54       	 .byte 84
 117 005c 54       	 .byte 84
 118 005d 22       	 .byte 34
 119 005e 00       	 .byte 0
 120 005f 00       	 .byte 0
 121 0060 00       	 .byte 0
 122 0061 00       	 .byte 0
 123 0062 00       	 .byte 0
 124 0063 0C       	 .byte 12
 125 0064 12       	 .byte 18
 126 0065 12       	 .byte 18
 127 0066 12       	 .byte 18
 128 0067 0A       	 .byte 10
 129 0068 76       	 .byte 118
 130 0069 25       	 .byte 37
 131 006a 29       	 .byte 41
 132 006b 11       	 .byte 17
 133 006c 91       	 .byte -111
 134 006d 6E       	 .byte 110
 135 006e 00       	 .byte 0
 136 006f 00       	 .byte 0
 137 0070 00       	 .byte 0
 138 0071 06       	 .byte 6
 139 0072 06       	 .byte 6
 140 0073 04       	 .byte 4
 141 0074 03       	 .byte 3
 142 0075 00       	 .byte 0
 143 0076 00       	 .byte 0
 144 0077 00       	 .byte 0
 145 0078 00       	 .byte 0
 146 0079 00       	 .byte 0
 147 007a 00       	 .byte 0
 148 007b 00       	 .byte 0
 149 007c 00       	 .byte 0
 150 007d 00       	 .byte 0
 151 007e 00       	 .byte 0
 152 007f 00       	 .byte 0
 153 0080 00       	 .byte 0
 154 0081 40       	 .byte 64
 155 0082 20       	 .byte 32
 156 0083 10       	 .byte 16
 157 0084 10       	 .byte 16
 158 0085 08       	 .byte 8
 159 0086 08       	 .byte 8
 160 0087 08       	 .byte 8
 161 0088 08       	 .byte 8
 162 0089 08       	 .byte 8
 163 008a 08       	 .byte 8
 164 008b 10       	 .byte 16
 165 008c 10       	 .byte 16
 166 008d 20       	 .byte 32
 167 008e 40       	 .byte 64
 168 008f 00       	 .byte 0
 169 0090 00       	 .byte 0
 170 0091 02       	 .byte 2
 171 0092 04       	 .byte 4
 172 0093 08       	 .byte 8
 173 0094 08       	 .byte 8
 174 0095 10       	 .byte 16
 175 0096 10       	 .byte 16
 176 0097 10       	 .byte 16
 177 0098 10       	 .byte 16
 178 0099 10       	 .byte 16
 179 009a 10       	 .byte 16
 180 009b 08       	 .byte 8
 181 009c 08       	 .byte 8
 182 009d 04       	 .byte 4
 183 009e 02       	 .byte 2
 184 009f 00       	 .byte 0
 185 00a0 00       	 .byte 0
 186 00a1 00       	 .byte 0
 187 00a2 00       	 .byte 0
 188 00a3 00       	 .byte 0
 189 00a4 08       	 .byte 8
 190 00a5 08       	 .byte 8
 191 00a6 6B       	 .byte 107
 192 00a7 1C       	 .byte 28
 193 00a8 1C       	 .byte 28
 194 00a9 6B       	 .byte 107
 195 00aa 08       	 .byte 8
 196 00ab 08       	 .byte 8
 197 00ac 00       	 .byte 0
 198 00ad 00       	 .byte 0
 199 00ae 00       	 .byte 0
 200 00af 00       	 .byte 0
 201 00b0 00       	 .byte 0
 202 00b1 00       	 .byte 0
 203 00b2 00       	 .byte 0
 204 00b3 00       	 .byte 0
 205 00b4 08       	 .byte 8
 206 00b5 08       	 .byte 8
 207 00b6 08       	 .byte 8
 208 00b7 08       	 .byte 8
 209 00b8 7F       	 .byte 127
 210 00b9 08       	 .byte 8
 211 00ba 08       	 .byte 8
 212 00bb 08       	 .byte 8
 213 00bc 08       	 .byte 8
 214 00bd 00       	 .byte 0
 215 00be 00       	 .byte 0
 216 00bf 00       	 .byte 0
 217 00c0 00       	 .byte 0
 218 00c1 00       	 .byte 0
 219 00c2 00       	 .byte 0
 220 00c3 00       	 .byte 0
 221 00c4 00       	 .byte 0
 222 00c5 00       	 .byte 0
 223 00c6 00       	 .byte 0
 224 00c7 00       	 .byte 0
 225 00c8 00       	 .byte 0
 226 00c9 00       	 .byte 0
 227 00ca 00       	 .byte 0
 228 00cb 00       	 .byte 0
 229 00cc 06       	 .byte 6
 230 00cd 06       	 .byte 6
 231 00ce 04       	 .byte 4
 232 00cf 03       	 .byte 3
 233 00d0 00       	 .byte 0
 234 00d1 00       	 .byte 0
 235 00d2 00       	 .byte 0
 236 00d3 00       	 .byte 0
 237 00d4 00       	 .byte 0
 238 00d5 00       	 .byte 0
 239 00d6 00       	 .byte 0
 240 00d7 00       	 .byte 0
 241 00d8 FE       	 .byte -2
 242 00d9 00       	 .byte 0
 243 00da 00       	 .byte 0
 244 00db 00       	 .byte 0
 245 00dc 00       	 .byte 0
 246 00dd 00       	 .byte 0
 247 00de 00       	 .byte 0
 248 00df 00       	 .byte 0
 249 00e0 00       	 .byte 0
 250 00e1 00       	 .byte 0
 251 00e2 00       	 .byte 0
 252 00e3 00       	 .byte 0
 253 00e4 00       	 .byte 0
 254 00e5 00       	 .byte 0
 255 00e6 00       	 .byte 0
 256 00e7 00       	 .byte 0
 257 00e8 00       	 .byte 0
 258 00e9 00       	 .byte 0
 259 00ea 00       	 .byte 0
 260 00eb 00       	 .byte 0
 261 00ec 06       	 .byte 6
 262 00ed 06       	 .byte 6
 263 00ee 00       	 .byte 0
 264 00ef 00       	 .byte 0
 265 00f0 00       	 .byte 0
 266 00f1 00       	 .byte 0
 267 00f2 80       	 .byte -128
 268 00f3 40       	 .byte 64
 269 00f4 40       	 .byte 64
 270 00f5 20       	 .byte 32
 271 00f6 20       	 .byte 32
 272 00f7 10       	 .byte 16
 273 00f8 10       	 .byte 16
 274 00f9 08       	 .byte 8
 275 00fa 08       	 .byte 8
 276 00fb 04       	 .byte 4
 277 00fc 04       	 .byte 4
 278 00fd 02       	 .byte 2
 279 00fe 02       	 .byte 2
 280 00ff 00       	 .byte 0
 281 0100 00       	 .byte 0
 282 0101 00       	 .byte 0
 283 0102 00       	 .byte 0
 284 0103 18       	 .byte 24
 285 0104 24       	 .byte 36
 286 0105 42       	 .byte 66
 287 0106 42       	 .byte 66
 288 0107 42       	 .byte 66
 289 0108 42       	 .byte 66
 290 0109 42       	 .byte 66
 291 010a 42       	 .byte 66
 292 010b 42       	 .byte 66
 293 010c 24       	 .byte 36
 294 010d 18       	 .byte 24
 295 010e 00       	 .byte 0
 296 010f 00       	 .byte 0
 297 0110 00       	 .byte 0
 298 0111 00       	 .byte 0
 299 0112 00       	 .byte 0
 300 0113 08       	 .byte 8
 301 0114 0E       	 .byte 14
 302 0115 08       	 .byte 8
 303 0116 08       	 .byte 8
 304 0117 08       	 .byte 8
 305 0118 08       	 .byte 8
 306 0119 08       	 .byte 8
 307 011a 08       	 .byte 8
 308 011b 08       	 .byte 8
 309 011c 08       	 .byte 8
 310 011d 3E       	 .byte 62
 311 011e 00       	 .byte 0
 312 011f 00       	 .byte 0
 313 0120 00       	 .byte 0
 314 0121 00       	 .byte 0
 315 0122 00       	 .byte 0
 316 0123 3C       	 .byte 60
 317 0124 42       	 .byte 66
 318 0125 42       	 .byte 66
 319 0126 42       	 .byte 66
 320 0127 20       	 .byte 32
 321 0128 20       	 .byte 32
 322 0129 10       	 .byte 16
 323 012a 08       	 .byte 8
 324 012b 04       	 .byte 4
 325 012c 42       	 .byte 66
 326 012d 7E       	 .byte 126
 327 012e 00       	 .byte 0
 328 012f 00       	 .byte 0
 329 0130 00       	 .byte 0
 330 0131 00       	 .byte 0
 331 0132 00       	 .byte 0
 332 0133 3C       	 .byte 60
 333 0134 42       	 .byte 66
 334 0135 42       	 .byte 66
 335 0136 20       	 .byte 32
 336 0137 18       	 .byte 24
 337 0138 20       	 .byte 32
 338 0139 40       	 .byte 64
 339 013a 40       	 .byte 64
 340 013b 42       	 .byte 66
 341 013c 22       	 .byte 34
 342 013d 1C       	 .byte 28
 343 013e 00       	 .byte 0
 344 013f 00       	 .byte 0
 345 0140 00       	 .byte 0
 346 0141 00       	 .byte 0
 347 0142 00       	 .byte 0
 348 0143 20       	 .byte 32
 349 0144 30       	 .byte 48
 350 0145 28       	 .byte 40
 351 0146 24       	 .byte 36
 352 0147 24       	 .byte 36
 353 0148 22       	 .byte 34
 354 0149 22       	 .byte 34
 355 014a 7E       	 .byte 126
 356 014b 20       	 .byte 32
 357 014c 20       	 .byte 32
 358 014d 78       	 .byte 120
 359 014e 00       	 .byte 0
 360 014f 00       	 .byte 0
 361 0150 00       	 .byte 0
 362 0151 00       	 .byte 0
 363 0152 00       	 .byte 0
 364 0153 7E       	 .byte 126
 365 0154 02       	 .byte 2
 366 0155 02       	 .byte 2
 367 0156 02       	 .byte 2
 368 0157 1A       	 .byte 26
 369 0158 26       	 .byte 38
 370 0159 40       	 .byte 64
 371 015a 40       	 .byte 64
 372 015b 42       	 .byte 66
 373 015c 22       	 .byte 34
 374 015d 1C       	 .byte 28
 375 015e 00       	 .byte 0
 376 015f 00       	 .byte 0
 377 0160 00       	 .byte 0
 378 0161 00       	 .byte 0
 379 0162 00       	 .byte 0
 380 0163 38       	 .byte 56
 381 0164 24       	 .byte 36
 382 0165 02       	 .byte 2
 383 0166 02       	 .byte 2
 384 0167 1A       	 .byte 26
 385 0168 26       	 .byte 38
 386 0169 42       	 .byte 66
 387 016a 42       	 .byte 66
 388 016b 42       	 .byte 66
 389 016c 24       	 .byte 36
 390 016d 18       	 .byte 24
 391 016e 00       	 .byte 0
 392 016f 00       	 .byte 0
 393 0170 00       	 .byte 0
 394 0171 00       	 .byte 0
 395 0172 00       	 .byte 0
 396 0173 7E       	 .byte 126
 397 0174 22       	 .byte 34
 398 0175 22       	 .byte 34
 399 0176 10       	 .byte 16
 400 0177 10       	 .byte 16
 401 0178 08       	 .byte 8
 402 0179 08       	 .byte 8
 403 017a 08       	 .byte 8
 404 017b 08       	 .byte 8
 405 017c 08       	 .byte 8
 406 017d 08       	 .byte 8
 407 017e 00       	 .byte 0
 408 017f 00       	 .byte 0
 409 0180 00       	 .byte 0
 410 0181 00       	 .byte 0
 411 0182 00       	 .byte 0
 412 0183 3C       	 .byte 60
 413 0184 42       	 .byte 66
 414 0185 42       	 .byte 66
 415 0186 42       	 .byte 66
 416 0187 24       	 .byte 36
 417 0188 18       	 .byte 24
 418 0189 24       	 .byte 36
 419 018a 42       	 .byte 66
 420 018b 42       	 .byte 66
 421 018c 42       	 .byte 66
 422 018d 3C       	 .byte 60
 423 018e 00       	 .byte 0
 424 018f 00       	 .byte 0
 425 0190 00       	 .byte 0
 426 0191 00       	 .byte 0
 427 0192 00       	 .byte 0
 428 0193 18       	 .byte 24
 429 0194 24       	 .byte 36
 430 0195 42       	 .byte 66
 431 0196 42       	 .byte 66
 432 0197 42       	 .byte 66
 433 0198 64       	 .byte 100
 434 0199 58       	 .byte 88
 435 019a 40       	 .byte 64
 436 019b 40       	 .byte 64
 437 019c 24       	 .byte 36
 438 019d 1C       	 .byte 28
 439 019e 00       	 .byte 0
 440 019f 00       	 .byte 0
 441 01a0 00       	 .byte 0
 442 01a1 00       	 .byte 0
 443 01a2 00       	 .byte 0
 444 01a3 00       	 .byte 0
 445 01a4 00       	 .byte 0
 446 01a5 00       	 .byte 0
 447 01a6 18       	 .byte 24
 448 01a7 18       	 .byte 24
 449 01a8 00       	 .byte 0
 450 01a9 00       	 .byte 0
 451 01aa 00       	 .byte 0
 452 01ab 00       	 .byte 0
 453 01ac 18       	 .byte 24
 454 01ad 18       	 .byte 24
 455 01ae 00       	 .byte 0
 456 01af 00       	 .byte 0
 457 01b0 00       	 .byte 0
 458 01b1 00       	 .byte 0
 459 01b2 00       	 .byte 0
 460 01b3 00       	 .byte 0
 461 01b4 00       	 .byte 0
 462 01b5 00       	 .byte 0
 463 01b6 00       	 .byte 0
 464 01b7 08       	 .byte 8
 465 01b8 00       	 .byte 0
 466 01b9 00       	 .byte 0
 467 01ba 00       	 .byte 0
 468 01bb 00       	 .byte 0
 469 01bc 00       	 .byte 0
 470 01bd 08       	 .byte 8
 471 01be 08       	 .byte 8
 472 01bf 04       	 .byte 4
 473 01c0 00       	 .byte 0
 474 01c1 00       	 .byte 0
 475 01c2 00       	 .byte 0
 476 01c3 40       	 .byte 64
 477 01c4 20       	 .byte 32
 478 01c5 10       	 .byte 16
 479 01c6 08       	 .byte 8
 480 01c7 04       	 .byte 4
 481 01c8 02       	 .byte 2
 482 01c9 04       	 .byte 4
 483 01ca 08       	 .byte 8
 484 01cb 10       	 .byte 16
 485 01cc 20       	 .byte 32
 486 01cd 40       	 .byte 64
 487 01ce 00       	 .byte 0
 488 01cf 00       	 .byte 0
 489 01d0 00       	 .byte 0
 490 01d1 00       	 .byte 0
 491 01d2 00       	 .byte 0
 492 01d3 00       	 .byte 0
 493 01d4 00       	 .byte 0
 494 01d5 00       	 .byte 0
 495 01d6 7F       	 .byte 127
 496 01d7 00       	 .byte 0
 497 01d8 00       	 .byte 0
 498 01d9 00       	 .byte 0
 499 01da 7F       	 .byte 127
 500 01db 00       	 .byte 0
 501 01dc 00       	 .byte 0
 502 01dd 00       	 .byte 0
 503 01de 00       	 .byte 0
 504 01df 00       	 .byte 0
 505 01e0 00       	 .byte 0
 506 01e1 00       	 .byte 0
 507 01e2 00       	 .byte 0
 508 01e3 02       	 .byte 2
 509 01e4 04       	 .byte 4
 510 01e5 08       	 .byte 8
 511 01e6 10       	 .byte 16
 512 01e7 20       	 .byte 32
 513 01e8 40       	 .byte 64
 514 01e9 20       	 .byte 32
 515 01ea 10       	 .byte 16
 516 01eb 08       	 .byte 8
 517 01ec 04       	 .byte 4
 518 01ed 02       	 .byte 2
 519 01ee 00       	 .byte 0
 520 01ef 00       	 .byte 0
 521 01f0 00       	 .byte 0
 522 01f1 00       	 .byte 0
 523 01f2 00       	 .byte 0
 524 01f3 3C       	 .byte 60
 525 01f4 42       	 .byte 66
 526 01f5 42       	 .byte 66
 527 01f6 46       	 .byte 70
 528 01f7 40       	 .byte 64
 529 01f8 20       	 .byte 32
 530 01f9 10       	 .byte 16
 531 01fa 10       	 .byte 16
 532 01fb 00       	 .byte 0
 533 01fc 18       	 .byte 24
 534 01fd 18       	 .byte 24
 535 01fe 00       	 .byte 0
 536 01ff 00       	 .byte 0
 537 0200 00       	 .byte 0
 538 0201 00       	 .byte 0
 539 0202 00       	 .byte 0
 540 0203 1C       	 .byte 28
 541 0204 22       	 .byte 34
 542 0205 5A       	 .byte 90
 543 0206 55       	 .byte 85
 544 0207 55       	 .byte 85
 545 0208 55       	 .byte 85
 546 0209 55       	 .byte 85
 547 020a 2D       	 .byte 45
 548 020b 42       	 .byte 66
 549 020c 22       	 .byte 34
 550 020d 1C       	 .byte 28
 551 020e 00       	 .byte 0
 552 020f 00       	 .byte 0
 553 0210 00       	 .byte 0
 554 0211 00       	 .byte 0
 555 0212 00       	 .byte 0
 556 0213 08       	 .byte 8
 557 0214 08       	 .byte 8
 558 0215 18       	 .byte 24
 559 0216 14       	 .byte 20
 560 0217 14       	 .byte 20
 561 0218 24       	 .byte 36
 562 0219 3C       	 .byte 60
 563 021a 22       	 .byte 34
 564 021b 42       	 .byte 66
 565 021c 42       	 .byte 66
 566 021d E7       	 .byte -25
 567 021e 00       	 .byte 0
 568 021f 00       	 .byte 0
 569 0220 00       	 .byte 0
 570 0221 00       	 .byte 0
 571 0222 00       	 .byte 0
 572 0223 1F       	 .byte 31
 573 0224 22       	 .byte 34
 574 0225 22       	 .byte 34
 575 0226 22       	 .byte 34
 576 0227 1E       	 .byte 30
 577 0228 22       	 .byte 34
 578 0229 42       	 .byte 66
 579 022a 42       	 .byte 66
 580 022b 42       	 .byte 66
 581 022c 22       	 .byte 34
 582 022d 1F       	 .byte 31
 583 022e 00       	 .byte 0
 584 022f 00       	 .byte 0
 585 0230 00       	 .byte 0
 586 0231 00       	 .byte 0
 587 0232 00       	 .byte 0
 588 0233 7C       	 .byte 124
 589 0234 42       	 .byte 66
 590 0235 42       	 .byte 66
 591 0236 01       	 .byte 1
 592 0237 01       	 .byte 1
 593 0238 01       	 .byte 1
 594 0239 01       	 .byte 1
 595 023a 01       	 .byte 1
 596 023b 42       	 .byte 66
 597 023c 22       	 .byte 34
 598 023d 1C       	 .byte 28
 599 023e 00       	 .byte 0
 600 023f 00       	 .byte 0
 601 0240 00       	 .byte 0
 602 0241 00       	 .byte 0
 603 0242 00       	 .byte 0
 604 0243 1F       	 .byte 31
 605 0244 22       	 .byte 34
 606 0245 42       	 .byte 66
 607 0246 42       	 .byte 66
 608 0247 42       	 .byte 66
 609 0248 42       	 .byte 66
 610 0249 42       	 .byte 66
 611 024a 42       	 .byte 66
 612 024b 42       	 .byte 66
 613 024c 22       	 .byte 34
 614 024d 1F       	 .byte 31
 615 024e 00       	 .byte 0
 616 024f 00       	 .byte 0
 617 0250 00       	 .byte 0
 618 0251 00       	 .byte 0
 619 0252 00       	 .byte 0
 620 0253 3F       	 .byte 63
 621 0254 42       	 .byte 66
 622 0255 12       	 .byte 18
 623 0256 12       	 .byte 18
 624 0257 1E       	 .byte 30
 625 0258 12       	 .byte 18
 626 0259 12       	 .byte 18
 627 025a 02       	 .byte 2
 628 025b 42       	 .byte 66
 629 025c 42       	 .byte 66
 630 025d 3F       	 .byte 63
 631 025e 00       	 .byte 0
 632 025f 00       	 .byte 0
 633 0260 00       	 .byte 0
 634 0261 00       	 .byte 0
 635 0262 00       	 .byte 0
 636 0263 3F       	 .byte 63
 637 0264 42       	 .byte 66
 638 0265 12       	 .byte 18
 639 0266 12       	 .byte 18
 640 0267 1E       	 .byte 30
 641 0268 12       	 .byte 18
 642 0269 12       	 .byte 18
 643 026a 02       	 .byte 2
 644 026b 02       	 .byte 2
 645 026c 02       	 .byte 2
 646 026d 07       	 .byte 7
 647 026e 00       	 .byte 0
 648 026f 00       	 .byte 0
 649 0270 00       	 .byte 0
 650 0271 00       	 .byte 0
 651 0272 00       	 .byte 0
 652 0273 3C       	 .byte 60
 653 0274 22       	 .byte 34
 654 0275 22       	 .byte 34
 655 0276 01       	 .byte 1
 656 0277 01       	 .byte 1
 657 0278 01       	 .byte 1
 658 0279 71       	 .byte 113
 659 027a 21       	 .byte 33
 660 027b 22       	 .byte 34
 661 027c 22       	 .byte 34
 662 027d 1C       	 .byte 28
 663 027e 00       	 .byte 0
 664 027f 00       	 .byte 0
 665 0280 00       	 .byte 0
 666 0281 00       	 .byte 0
 667 0282 00       	 .byte 0
 668 0283 E7       	 .byte -25
 669 0284 42       	 .byte 66
 670 0285 42       	 .byte 66
 671 0286 42       	 .byte 66
 672 0287 42       	 .byte 66
 673 0288 7E       	 .byte 126
 674 0289 42       	 .byte 66
 675 028a 42       	 .byte 66
 676 028b 42       	 .byte 66
 677 028c 42       	 .byte 66
 678 028d E7       	 .byte -25
 679 028e 00       	 .byte 0
 680 028f 00       	 .byte 0
 681 0290 00       	 .byte 0
 682 0291 00       	 .byte 0
 683 0292 00       	 .byte 0
 684 0293 3E       	 .byte 62
 685 0294 08       	 .byte 8
 686 0295 08       	 .byte 8
 687 0296 08       	 .byte 8
 688 0297 08       	 .byte 8
 689 0298 08       	 .byte 8
 690 0299 08       	 .byte 8
 691 029a 08       	 .byte 8
 692 029b 08       	 .byte 8
 693 029c 08       	 .byte 8
 694 029d 3E       	 .byte 62
 695 029e 00       	 .byte 0
 696 029f 00       	 .byte 0
 697 02a0 00       	 .byte 0
 698 02a1 00       	 .byte 0
 699 02a2 00       	 .byte 0
 700 02a3 7C       	 .byte 124
 701 02a4 10       	 .byte 16
 702 02a5 10       	 .byte 16
 703 02a6 10       	 .byte 16
 704 02a7 10       	 .byte 16
 705 02a8 10       	 .byte 16
 706 02a9 10       	 .byte 16
 707 02aa 10       	 .byte 16
 708 02ab 10       	 .byte 16
 709 02ac 10       	 .byte 16
 710 02ad 10       	 .byte 16
 711 02ae 11       	 .byte 17
 712 02af 0F       	 .byte 15
 713 02b0 00       	 .byte 0
 714 02b1 00       	 .byte 0
 715 02b2 00       	 .byte 0
 716 02b3 77       	 .byte 119
 717 02b4 22       	 .byte 34
 718 02b5 12       	 .byte 18
 719 02b6 0A       	 .byte 10
 720 02b7 0E       	 .byte 14
 721 02b8 0A       	 .byte 10
 722 02b9 12       	 .byte 18
 723 02ba 12       	 .byte 18
 724 02bb 22       	 .byte 34
 725 02bc 22       	 .byte 34
 726 02bd 77       	 .byte 119
 727 02be 00       	 .byte 0
 728 02bf 00       	 .byte 0
 729 02c0 00       	 .byte 0
 730 02c1 00       	 .byte 0
 731 02c2 00       	 .byte 0
 732 02c3 07       	 .byte 7
 733 02c4 02       	 .byte 2
 734 02c5 02       	 .byte 2
 735 02c6 02       	 .byte 2
 736 02c7 02       	 .byte 2
 737 02c8 02       	 .byte 2
 738 02c9 02       	 .byte 2
 739 02ca 02       	 .byte 2
 740 02cb 02       	 .byte 2
 741 02cc 42       	 .byte 66
 742 02cd 7F       	 .byte 127
 743 02ce 00       	 .byte 0
 744 02cf 00       	 .byte 0
 745 02d0 00       	 .byte 0
 746 02d1 00       	 .byte 0
 747 02d2 00       	 .byte 0
 748 02d3 77       	 .byte 119
 749 02d4 36       	 .byte 54
 750 02d5 36       	 .byte 54
 751 02d6 36       	 .byte 54
 752 02d7 36       	 .byte 54
 753 02d8 2A       	 .byte 42
 754 02d9 2A       	 .byte 42
 755 02da 2A       	 .byte 42
 756 02db 2A       	 .byte 42
 757 02dc 2A       	 .byte 42
 758 02dd 6B       	 .byte 107
 759 02de 00       	 .byte 0
 760 02df 00       	 .byte 0
 761 02e0 00       	 .byte 0
 762 02e1 00       	 .byte 0
 763 02e2 00       	 .byte 0
 764 02e3 E3       	 .byte -29
 765 02e4 46       	 .byte 70
 766 02e5 46       	 .byte 70
 767 02e6 4A       	 .byte 74
 768 02e7 4A       	 .byte 74
 769 02e8 52       	 .byte 82
 770 02e9 52       	 .byte 82
 771 02ea 52       	 .byte 82
 772 02eb 62       	 .byte 98
 773 02ec 62       	 .byte 98
 774 02ed 47       	 .byte 71
 775 02ee 00       	 .byte 0
 776 02ef 00       	 .byte 0
 777 02f0 00       	 .byte 0
 778 02f1 00       	 .byte 0
 779 02f2 00       	 .byte 0
 780 02f3 1C       	 .byte 28
 781 02f4 22       	 .byte 34
 782 02f5 41       	 .byte 65
 783 02f6 41       	 .byte 65
 784 02f7 41       	 .byte 65
 785 02f8 41       	 .byte 65
 786 02f9 41       	 .byte 65
 787 02fa 41       	 .byte 65
 788 02fb 41       	 .byte 65
 789 02fc 22       	 .byte 34
 790 02fd 1C       	 .byte 28
 791 02fe 00       	 .byte 0
 792 02ff 00       	 .byte 0
 793 0300 00       	 .byte 0
 794 0301 00       	 .byte 0
 795 0302 00       	 .byte 0
 796 0303 3F       	 .byte 63
 797 0304 42       	 .byte 66
 798 0305 42       	 .byte 66
 799 0306 42       	 .byte 66
 800 0307 42       	 .byte 66
 801 0308 3E       	 .byte 62
 802 0309 02       	 .byte 2
 803 030a 02       	 .byte 2
 804 030b 02       	 .byte 2
 805 030c 02       	 .byte 2
 806 030d 07       	 .byte 7
 807 030e 00       	 .byte 0
 808 030f 00       	 .byte 0
 809 0310 00       	 .byte 0
 810 0311 00       	 .byte 0
 811 0312 00       	 .byte 0
 812 0313 1C       	 .byte 28
 813 0314 22       	 .byte 34
 814 0315 41       	 .byte 65
 815 0316 41       	 .byte 65
 816 0317 41       	 .byte 65
 817 0318 41       	 .byte 65
 818 0319 41       	 .byte 65
 819 031a 4D       	 .byte 77
 820 031b 53       	 .byte 83
 821 031c 32       	 .byte 50
 822 031d 1C       	 .byte 28
 823 031e 60       	 .byte 96
 824 031f 00       	 .byte 0
 825 0320 00       	 .byte 0
 826 0321 00       	 .byte 0
 827 0322 00       	 .byte 0
 828 0323 3F       	 .byte 63
 829 0324 42       	 .byte 66
 830 0325 42       	 .byte 66
 831 0326 42       	 .byte 66
 832 0327 3E       	 .byte 62
 833 0328 12       	 .byte 18
 834 0329 12       	 .byte 18
 835 032a 22       	 .byte 34
 836 032b 22       	 .byte 34
 837 032c 42       	 .byte 66
 838 032d C7       	 .byte -57
 839 032e 00       	 .byte 0
 840 032f 00       	 .byte 0
 841 0330 00       	 .byte 0
 842 0331 00       	 .byte 0
 843 0332 00       	 .byte 0
 844 0333 7C       	 .byte 124
 845 0334 42       	 .byte 66
 846 0335 42       	 .byte 66
 847 0336 02       	 .byte 2
 848 0337 04       	 .byte 4
 849 0338 18       	 .byte 24
 850 0339 20       	 .byte 32
 851 033a 40       	 .byte 64
 852 033b 42       	 .byte 66
 853 033c 42       	 .byte 66
 854 033d 3E       	 .byte 62
 855 033e 00       	 .byte 0
 856 033f 00       	 .byte 0
 857 0340 00       	 .byte 0
 858 0341 00       	 .byte 0
 859 0342 00       	 .byte 0
 860 0343 7F       	 .byte 127
 861 0344 49       	 .byte 73
 862 0345 08       	 .byte 8
 863 0346 08       	 .byte 8
 864 0347 08       	 .byte 8
 865 0348 08       	 .byte 8
 866 0349 08       	 .byte 8
 867 034a 08       	 .byte 8
 868 034b 08       	 .byte 8
 869 034c 08       	 .byte 8
 870 034d 1C       	 .byte 28
 871 034e 00       	 .byte 0
 872 034f 00       	 .byte 0
 873 0350 00       	 .byte 0
 874 0351 00       	 .byte 0
 875 0352 00       	 .byte 0
 876 0353 E7       	 .byte -25
 877 0354 42       	 .byte 66
 878 0355 42       	 .byte 66
 879 0356 42       	 .byte 66
 880 0357 42       	 .byte 66
 881 0358 42       	 .byte 66
 882 0359 42       	 .byte 66
 883 035a 42       	 .byte 66
 884 035b 42       	 .byte 66
 885 035c 42       	 .byte 66
 886 035d 3C       	 .byte 60
 887 035e 00       	 .byte 0
 888 035f 00       	 .byte 0
 889 0360 00       	 .byte 0
 890 0361 00       	 .byte 0
 891 0362 00       	 .byte 0
 892 0363 E7       	 .byte -25
 893 0364 42       	 .byte 66
 894 0365 42       	 .byte 66
 895 0366 22       	 .byte 34
 896 0367 24       	 .byte 36
 897 0368 24       	 .byte 36
 898 0369 14       	 .byte 20
 899 036a 14       	 .byte 20
 900 036b 18       	 .byte 24
 901 036c 08       	 .byte 8
 902 036d 08       	 .byte 8
 903 036e 00       	 .byte 0
 904 036f 00       	 .byte 0
 905 0370 00       	 .byte 0
 906 0371 00       	 .byte 0
 907 0372 00       	 .byte 0
 908 0373 6B       	 .byte 107
 909 0374 49       	 .byte 73
 910 0375 49       	 .byte 73
 911 0376 49       	 .byte 73
 912 0377 49       	 .byte 73
 913 0378 55       	 .byte 85
 914 0379 55       	 .byte 85
 915 037a 36       	 .byte 54
 916 037b 22       	 .byte 34
 917 037c 22       	 .byte 34
 918 037d 22       	 .byte 34
 919 037e 00       	 .byte 0
 920 037f 00       	 .byte 0
 921 0380 00       	 .byte 0
 922 0381 00       	 .byte 0
 923 0382 00       	 .byte 0
 924 0383 E7       	 .byte -25
 925 0384 42       	 .byte 66
 926 0385 24       	 .byte 36
 927 0386 24       	 .byte 36
 928 0387 18       	 .byte 24
 929 0388 18       	 .byte 24
 930 0389 18       	 .byte 24
 931 038a 24       	 .byte 36
 932 038b 24       	 .byte 36
 933 038c 42       	 .byte 66
 934 038d E7       	 .byte -25
 935 038e 00       	 .byte 0
 936 038f 00       	 .byte 0
 937 0390 00       	 .byte 0
 938 0391 00       	 .byte 0
 939 0392 00       	 .byte 0
 940 0393 77       	 .byte 119
 941 0394 22       	 .byte 34
 942 0395 22       	 .byte 34
 943 0396 14       	 .byte 20
 944 0397 14       	 .byte 20
 945 0398 08       	 .byte 8
 946 0399 08       	 .byte 8
 947 039a 08       	 .byte 8
 948 039b 08       	 .byte 8
 949 039c 08       	 .byte 8
 950 039d 1C       	 .byte 28
 951 039e 00       	 .byte 0
 952 039f 00       	 .byte 0
 953 03a0 00       	 .byte 0
 954 03a1 00       	 .byte 0
 955 03a2 00       	 .byte 0
 956 03a3 7E       	 .byte 126
 957 03a4 21       	 .byte 33
 958 03a5 20       	 .byte 32
 959 03a6 10       	 .byte 16
 960 03a7 10       	 .byte 16
 961 03a8 08       	 .byte 8
 962 03a9 04       	 .byte 4
 963 03aa 04       	 .byte 4
 964 03ab 42       	 .byte 66
 965 03ac 42       	 .byte 66
 966 03ad 3F       	 .byte 63
 967 03ae 00       	 .byte 0
 968 03af 00       	 .byte 0
 969 03b0 00       	 .byte 0
 970 03b1 78       	 .byte 120
 971 03b2 08       	 .byte 8
 972 03b3 08       	 .byte 8
 973 03b4 08       	 .byte 8
 974 03b5 08       	 .byte 8
 975 03b6 08       	 .byte 8
 976 03b7 08       	 .byte 8
 977 03b8 08       	 .byte 8
 978 03b9 08       	 .byte 8
 979 03ba 08       	 .byte 8
 980 03bb 08       	 .byte 8
 981 03bc 08       	 .byte 8
 982 03bd 08       	 .byte 8
 983 03be 78       	 .byte 120
 984 03bf 00       	 .byte 0
 985 03c0 00       	 .byte 0
 986 03c1 00       	 .byte 0
 987 03c2 02       	 .byte 2
 988 03c3 02       	 .byte 2
 989 03c4 04       	 .byte 4
 990 03c5 04       	 .byte 4
 991 03c6 08       	 .byte 8
 992 03c7 08       	 .byte 8
 993 03c8 08       	 .byte 8
 994 03c9 10       	 .byte 16
 995 03ca 10       	 .byte 16
 996 03cb 20       	 .byte 32
 997 03cc 20       	 .byte 32
 998 03cd 20       	 .byte 32
 999 03ce 40       	 .byte 64
 1000 03cf 40       	 .byte 64
 1001 03d0 00       	 .byte 0
 1002 03d1 1E       	 .byte 30
 1003 03d2 10       	 .byte 16
 1004 03d3 10       	 .byte 16
 1005 03d4 10       	 .byte 16
 1006 03d5 10       	 .byte 16
 1007 03d6 10       	 .byte 16
 1008 03d7 10       	 .byte 16
 1009 03d8 10       	 .byte 16
 1010 03d9 10       	 .byte 16
 1011 03da 10       	 .byte 16
 1012 03db 10       	 .byte 16
 1013 03dc 10       	 .byte 16
 1014 03dd 10       	 .byte 16
 1015 03de 1E       	 .byte 30
 1016 03df 00       	 .byte 0
 1017 03e0 00       	 .byte 0
 1018 03e1 38       	 .byte 56
 1019 03e2 44       	 .byte 68
 1020 03e3 00       	 .byte 0
 1021 03e4 00       	 .byte 0
 1022 03e5 00       	 .byte 0
 1023 03e6 00       	 .byte 0
 1024 03e7 00       	 .byte 0
 1025 03e8 00       	 .byte 0
 1026 03e9 00       	 .byte 0
 1027 03ea 00       	 .byte 0
 1028 03eb 00       	 .byte 0
 1029 03ec 00       	 .byte 0
 1030 03ed 00       	 .byte 0
 1031 03ee 00       	 .byte 0
 1032 03ef 00       	 .byte 0
 1033 03f0 00       	 .byte 0
 1034 03f1 00       	 .byte 0
 1035 03f2 00       	 .byte 0
 1036 03f3 00       	 .byte 0
 1037 03f4 00       	 .byte 0
 1038 03f5 00       	 .byte 0
 1039 03f6 00       	 .byte 0
 1040 03f7 00       	 .byte 0
 1041 03f8 00       	 .byte 0
 1042 03f9 00       	 .byte 0
 1043 03fa 00       	 .byte 0
 1044 03fb 00       	 .byte 0
 1045 03fc 00       	 .byte 0
 1046 03fd 00       	 .byte 0
 1047 03fe 00       	 .byte 0
 1048 03ff FF       	 .byte -1
 1049 0400 00       	 .byte 0
 1050 0401 06       	 .byte 6
 1051 0402 08       	 .byte 8
 1052 0403 00       	 .byte 0
 1053 0404 00       	 .byte 0
 1054 0405 00       	 .byte 0
 1055 0406 00       	 .byte 0
 1056 0407 00       	 .byte 0
 1057 0408 00       	 .byte 0
 1058 0409 00       	 .byte 0
 1059 040a 00       	 .byte 0
 1060 040b 00       	 .byte 0
 1061 040c 00       	 .byte 0
 1062 040d 00       	 .byte 0
 1063 040e 00       	 .byte 0
 1064 040f 00       	 .byte 0
 1065 0410 00       	 .byte 0
 1066 0411 00       	 .byte 0
 1067 0412 00       	 .byte 0
 1068 0413 00       	 .byte 0
 1069 0414 00       	 .byte 0
 1070 0415 00       	 .byte 0
 1071 0416 00       	 .byte 0
 1072 0417 3C       	 .byte 60
 1073 0418 42       	 .byte 66
 1074 0419 78       	 .byte 120
 1075 041a 44       	 .byte 68
 1076 041b 42       	 .byte 66
 1077 041c 42       	 .byte 66
 1078 041d FC       	 .byte -4
 1079 041e 00       	 .byte 0
 1080 041f 00       	 .byte 0
 1081 0420 00       	 .byte 0
 1082 0421 00       	 .byte 0
 1083 0422 00       	 .byte 0
 1084 0423 03       	 .byte 3
 1085 0424 02       	 .byte 2
 1086 0425 02       	 .byte 2
 1087 0426 02       	 .byte 2
 1088 0427 1A       	 .byte 26
 1089 0428 26       	 .byte 38
 1090 0429 42       	 .byte 66
 1091 042a 42       	 .byte 66
 1092 042b 42       	 .byte 66
 1093 042c 26       	 .byte 38
 1094 042d 1A       	 .byte 26
 1095 042e 00       	 .byte 0
 1096 042f 00       	 .byte 0
 1097 0430 00       	 .byte 0
 1098 0431 00       	 .byte 0
 1099 0432 00       	 .byte 0
 1100 0433 00       	 .byte 0
 1101 0434 00       	 .byte 0
 1102 0435 00       	 .byte 0
 1103 0436 00       	 .byte 0
 1104 0437 38       	 .byte 56
 1105 0438 44       	 .byte 68
 1106 0439 02       	 .byte 2
 1107 043a 02       	 .byte 2
 1108 043b 02       	 .byte 2
 1109 043c 44       	 .byte 68
 1110 043d 38       	 .byte 56
 1111 043e 00       	 .byte 0
 1112 043f 00       	 .byte 0
 1113 0440 00       	 .byte 0
 1114 0441 00       	 .byte 0
 1115 0442 00       	 .byte 0
 1116 0443 60       	 .byte 96
 1117 0444 40       	 .byte 64
 1118 0445 40       	 .byte 64
 1119 0446 40       	 .byte 64
 1120 0447 78       	 .byte 120
 1121 0448 44       	 .byte 68
 1122 0449 42       	 .byte 66
 1123 044a 42       	 .byte 66
 1124 044b 42       	 .byte 66
 1125 044c 64       	 .byte 100
 1126 044d D8       	 .byte -40
 1127 044e 00       	 .byte 0
 1128 044f 00       	 .byte 0
 1129 0450 00       	 .byte 0
 1130 0451 00       	 .byte 0
 1131 0452 00       	 .byte 0
 1132 0453 00       	 .byte 0
 1133 0454 00       	 .byte 0
 1134 0455 00       	 .byte 0
 1135 0456 00       	 .byte 0
 1136 0457 3C       	 .byte 60
 1137 0458 42       	 .byte 66
 1138 0459 7E       	 .byte 126
 1139 045a 02       	 .byte 2
 1140 045b 02       	 .byte 2
 1141 045c 42       	 .byte 66
 1142 045d 3C       	 .byte 60
 1143 045e 00       	 .byte 0
 1144 045f 00       	 .byte 0
 1145 0460 00       	 .byte 0
 1146 0461 00       	 .byte 0
 1147 0462 00       	 .byte 0
 1148 0463 F0       	 .byte -16
 1149 0464 88       	 .byte -120
 1150 0465 08       	 .byte 8
 1151 0466 08       	 .byte 8
 1152 0467 7E       	 .byte 126
 1153 0468 08       	 .byte 8
 1154 0469 08       	 .byte 8
 1155 046a 08       	 .byte 8
 1156 046b 08       	 .byte 8
 1157 046c 08       	 .byte 8
 1158 046d 3E       	 .byte 62
 1159 046e 00       	 .byte 0
 1160 046f 00       	 .byte 0
 1161 0470 00       	 .byte 0
 1162 0471 00       	 .byte 0
 1163 0472 00       	 .byte 0
 1164 0473 00       	 .byte 0
 1165 0474 00       	 .byte 0
 1166 0475 00       	 .byte 0
 1167 0476 00       	 .byte 0
 1168 0477 7C       	 .byte 124
 1169 0478 22       	 .byte 34
 1170 0479 22       	 .byte 34
 1171 047a 1C       	 .byte 28
 1172 047b 02       	 .byte 2
 1173 047c 3C       	 .byte 60
 1174 047d 42       	 .byte 66
 1175 047e 42       	 .byte 66
 1176 047f 3C       	 .byte 60
 1177 0480 00       	 .byte 0
 1178 0481 00       	 .byte 0
 1179 0482 00       	 .byte 0
 1180 0483 03       	 .byte 3
 1181 0484 02       	 .byte 2
 1182 0485 02       	 .byte 2
 1183 0486 02       	 .byte 2
 1184 0487 3A       	 .byte 58
 1185 0488 46       	 .byte 70
 1186 0489 42       	 .byte 66
 1187 048a 42       	 .byte 66
 1188 048b 42       	 .byte 66
 1189 048c 42       	 .byte 66
 1190 048d E7       	 .byte -25
 1191 048e 00       	 .byte 0
 1192 048f 00       	 .byte 0
 1193 0490 00       	 .byte 0
 1194 0491 00       	 .byte 0
 1195 0492 00       	 .byte 0
 1196 0493 0C       	 .byte 12
 1197 0494 0C       	 .byte 12
 1198 0495 00       	 .byte 0
 1199 0496 00       	 .byte 0
 1200 0497 0E       	 .byte 14
 1201 0498 08       	 .byte 8
 1202 0499 08       	 .byte 8
 1203 049a 08       	 .byte 8
 1204 049b 08       	 .byte 8
 1205 049c 08       	 .byte 8
 1206 049d 3E       	 .byte 62
 1207 049e 00       	 .byte 0
 1208 049f 00       	 .byte 0
 1209 04a0 00       	 .byte 0
 1210 04a1 00       	 .byte 0
 1211 04a2 00       	 .byte 0
 1212 04a3 30       	 .byte 48
 1213 04a4 30       	 .byte 48
 1214 04a5 00       	 .byte 0
 1215 04a6 00       	 .byte 0
 1216 04a7 38       	 .byte 56
 1217 04a8 20       	 .byte 32
 1218 04a9 20       	 .byte 32
 1219 04aa 20       	 .byte 32
 1220 04ab 20       	 .byte 32
 1221 04ac 20       	 .byte 32
 1222 04ad 20       	 .byte 32
 1223 04ae 22       	 .byte 34
 1224 04af 1E       	 .byte 30
 1225 04b0 00       	 .byte 0
 1226 04b1 00       	 .byte 0
 1227 04b2 00       	 .byte 0
 1228 04b3 03       	 .byte 3
 1229 04b4 02       	 .byte 2
 1230 04b5 02       	 .byte 2
 1231 04b6 02       	 .byte 2
 1232 04b7 72       	 .byte 114
 1233 04b8 12       	 .byte 18
 1234 04b9 0A       	 .byte 10
 1235 04ba 16       	 .byte 22
 1236 04bb 12       	 .byte 18
 1237 04bc 22       	 .byte 34
 1238 04bd 77       	 .byte 119
 1239 04be 00       	 .byte 0
 1240 04bf 00       	 .byte 0
 1241 04c0 00       	 .byte 0
 1242 04c1 00       	 .byte 0
 1243 04c2 00       	 .byte 0
 1244 04c3 0E       	 .byte 14
 1245 04c4 08       	 .byte 8
 1246 04c5 08       	 .byte 8
 1247 04c6 08       	 .byte 8
 1248 04c7 08       	 .byte 8
 1249 04c8 08       	 .byte 8
 1250 04c9 08       	 .byte 8
 1251 04ca 08       	 .byte 8
 1252 04cb 08       	 .byte 8
 1253 04cc 08       	 .byte 8
 1254 04cd 3E       	 .byte 62
 1255 04ce 00       	 .byte 0
 1256 04cf 00       	 .byte 0
 1257 04d0 00       	 .byte 0
 1258 04d1 00       	 .byte 0
 1259 04d2 00       	 .byte 0
 1260 04d3 00       	 .byte 0
 1261 04d4 00       	 .byte 0
 1262 04d5 00       	 .byte 0
 1263 04d6 00       	 .byte 0
 1264 04d7 7F       	 .byte 127
 1265 04d8 92       	 .byte -110
 1266 04d9 92       	 .byte -110
 1267 04da 92       	 .byte -110
 1268 04db 92       	 .byte -110
 1269 04dc 92       	 .byte -110
 1270 04dd B7       	 .byte -73
 1271 04de 00       	 .byte 0
 1272 04df 00       	 .byte 0
 1273 04e0 00       	 .byte 0
 1274 04e1 00       	 .byte 0
 1275 04e2 00       	 .byte 0
 1276 04e3 00       	 .byte 0
 1277 04e4 00       	 .byte 0
 1278 04e5 00       	 .byte 0
 1279 04e6 00       	 .byte 0
 1280 04e7 3B       	 .byte 59
 1281 04e8 46       	 .byte 70
 1282 04e9 42       	 .byte 66
 1283 04ea 42       	 .byte 66
 1284 04eb 42       	 .byte 66
 1285 04ec 42       	 .byte 66
 1286 04ed E7       	 .byte -25
 1287 04ee 00       	 .byte 0
 1288 04ef 00       	 .byte 0
 1289 04f0 00       	 .byte 0
 1290 04f1 00       	 .byte 0
 1291 04f2 00       	 .byte 0
 1292 04f3 00       	 .byte 0
 1293 04f4 00       	 .byte 0
 1294 04f5 00       	 .byte 0
 1295 04f6 00       	 .byte 0
 1296 04f7 3C       	 .byte 60
 1297 04f8 42       	 .byte 66
 1298 04f9 42       	 .byte 66
 1299 04fa 42       	 .byte 66
 1300 04fb 42       	 .byte 66
 1301 04fc 42       	 .byte 66
 1302 04fd 3C       	 .byte 60
 1303 04fe 00       	 .byte 0
 1304 04ff 00       	 .byte 0
 1305 0500 00       	 .byte 0
 1306 0501 00       	 .byte 0
 1307 0502 00       	 .byte 0
 1308 0503 00       	 .byte 0
 1309 0504 00       	 .byte 0
 1310 0505 00       	 .byte 0
 1311 0506 00       	 .byte 0
 1312 0507 1B       	 .byte 27
 1313 0508 26       	 .byte 38
 1314 0509 42       	 .byte 66
 1315 050a 42       	 .byte 66
 1316 050b 42       	 .byte 66
 1317 050c 22       	 .byte 34
 1318 050d 1E       	 .byte 30
 1319 050e 02       	 .byte 2
 1320 050f 07       	 .byte 7
 1321 0510 00       	 .byte 0
 1322 0511 00       	 .byte 0
 1323 0512 00       	 .byte 0
 1324 0513 00       	 .byte 0
 1325 0514 00       	 .byte 0
 1326 0515 00       	 .byte 0
 1327 0516 00       	 .byte 0
 1328 0517 78       	 .byte 120
 1329 0518 44       	 .byte 68
 1330 0519 42       	 .byte 66
 1331 051a 42       	 .byte 66
 1332 051b 42       	 .byte 66
 1333 051c 44       	 .byte 68
 1334 051d 78       	 .byte 120
 1335 051e 40       	 .byte 64
 1336 051f E0       	 .byte -32
 1337 0520 00       	 .byte 0
 1338 0521 00       	 .byte 0
 1339 0522 00       	 .byte 0
 1340 0523 00       	 .byte 0
 1341 0524 00       	 .byte 0
 1342 0525 00       	 .byte 0
 1343 0526 00       	 .byte 0
 1344 0527 77       	 .byte 119
 1345 0528 4C       	 .byte 76
 1346 0529 04       	 .byte 4
 1347 052a 04       	 .byte 4
 1348 052b 04       	 .byte 4
 1349 052c 04       	 .byte 4
 1350 052d 1F       	 .byte 31
 1351 052e 00       	 .byte 0
 1352 052f 00       	 .byte 0
 1353 0530 00       	 .byte 0
 1354 0531 00       	 .byte 0
 1355 0532 00       	 .byte 0
 1356 0533 00       	 .byte 0
 1357 0534 00       	 .byte 0
 1358 0535 00       	 .byte 0
 1359 0536 00       	 .byte 0
 1360 0537 7C       	 .byte 124
 1361 0538 42       	 .byte 66
 1362 0539 02       	 .byte 2
 1363 053a 3C       	 .byte 60
 1364 053b 40       	 .byte 64
 1365 053c 42       	 .byte 66
 1366 053d 3E       	 .byte 62
 1367 053e 00       	 .byte 0
 1368 053f 00       	 .byte 0
 1369 0540 00       	 .byte 0
 1370 0541 00       	 .byte 0
 1371 0542 00       	 .byte 0
 1372 0543 00       	 .byte 0
 1373 0544 00       	 .byte 0
 1374 0545 08       	 .byte 8
 1375 0546 08       	 .byte 8
 1376 0547 3E       	 .byte 62
 1377 0548 08       	 .byte 8
 1378 0549 08       	 .byte 8
 1379 054a 08       	 .byte 8
 1380 054b 08       	 .byte 8
 1381 054c 08       	 .byte 8
 1382 054d 30       	 .byte 48
 1383 054e 00       	 .byte 0
 1384 054f 00       	 .byte 0
 1385 0550 00       	 .byte 0
 1386 0551 00       	 .byte 0
 1387 0552 00       	 .byte 0
 1388 0553 00       	 .byte 0
 1389 0554 00       	 .byte 0
 1390 0555 00       	 .byte 0
 1391 0556 00       	 .byte 0
 1392 0557 63       	 .byte 99
 1393 0558 42       	 .byte 66
 1394 0559 42       	 .byte 66
 1395 055a 42       	 .byte 66
 1396 055b 42       	 .byte 66
 1397 055c 62       	 .byte 98
 1398 055d DC       	 .byte -36
 1399 055e 00       	 .byte 0
 1400 055f 00       	 .byte 0
 1401 0560 00       	 .byte 0
 1402 0561 00       	 .byte 0
 1403 0562 00       	 .byte 0
 1404 0563 00       	 .byte 0
 1405 0564 00       	 .byte 0
 1406 0565 00       	 .byte 0
 1407 0566 00       	 .byte 0
 1408 0567 E7       	 .byte -25
 1409 0568 42       	 .byte 66
 1410 0569 24       	 .byte 36
 1411 056a 24       	 .byte 36
 1412 056b 14       	 .byte 20
 1413 056c 08       	 .byte 8
 1414 056d 08       	 .byte 8
 1415 056e 00       	 .byte 0
 1416 056f 00       	 .byte 0
 1417 0570 00       	 .byte 0
 1418 0571 00       	 .byte 0
 1419 0572 00       	 .byte 0
 1420 0573 00       	 .byte 0
 1421 0574 00       	 .byte 0
 1422 0575 00       	 .byte 0
 1423 0576 00       	 .byte 0
 1424 0577 EB       	 .byte -21
 1425 0578 49       	 .byte 73
 1426 0579 49       	 .byte 73
 1427 057a 55       	 .byte 85
 1428 057b 55       	 .byte 85
 1429 057c 22       	 .byte 34
 1430 057d 22       	 .byte 34
 1431 057e 00       	 .byte 0
 1432 057f 00       	 .byte 0
 1433 0580 00       	 .byte 0
 1434 0581 00       	 .byte 0
 1435 0582 00       	 .byte 0
 1436 0583 00       	 .byte 0
 1437 0584 00       	 .byte 0
 1438 0585 00       	 .byte 0
 1439 0586 00       	 .byte 0
 1440 0587 76       	 .byte 118
 1441 0588 24       	 .byte 36
 1442 0589 18       	 .byte 24
 1443 058a 18       	 .byte 24
 1444 058b 18       	 .byte 24
 1445 058c 24       	 .byte 36
 1446 058d 6E       	 .byte 110
 1447 058e 00       	 .byte 0
 1448 058f 00       	 .byte 0
 1449 0590 00       	 .byte 0
 1450 0591 00       	 .byte 0
 1451 0592 00       	 .byte 0
 1452 0593 00       	 .byte 0
 1453 0594 00       	 .byte 0
 1454 0595 00       	 .byte 0
 1455 0596 00       	 .byte 0
 1456 0597 E7       	 .byte -25
 1457 0598 42       	 .byte 66
 1458 0599 24       	 .byte 36
 1459 059a 24       	 .byte 36
 1460 059b 14       	 .byte 20
 1461 059c 18       	 .byte 24
 1462 059d 08       	 .byte 8
 1463 059e 08       	 .byte 8
 1464 059f 07       	 .byte 7
 1465 05a0 00       	 .byte 0
 1466 05a1 00       	 .byte 0
 1467 05a2 00       	 .byte 0
 1468 05a3 00       	 .byte 0
 1469 05a4 00       	 .byte 0
 1470 05a5 00       	 .byte 0
 1471 05a6 00       	 .byte 0
 1472 05a7 7E       	 .byte 126
 1473 05a8 22       	 .byte 34
 1474 05a9 10       	 .byte 16
 1475 05aa 08       	 .byte 8
 1476 05ab 08       	 .byte 8
 1477 05ac 44       	 .byte 68
 1478 05ad 7E       	 .byte 126
 1479 05ae 00       	 .byte 0
 1480 05af 00       	 .byte 0
 1481 05b0 00       	 .byte 0
 1482 05b1 C0       	 .byte -64
 1483 05b2 20       	 .byte 32
 1484 05b3 20       	 .byte 32
 1485 05b4 20       	 .byte 32
 1486 05b5 20       	 .byte 32
 1487 05b6 20       	 .byte 32
 1488 05b7 10       	 .byte 16
 1489 05b8 20       	 .byte 32
 1490 05b9 20       	 .byte 32
 1491 05ba 20       	 .byte 32
 1492 05bb 20       	 .byte 32
 1493 05bc 20       	 .byte 32
 1494 05bd 20       	 .byte 32
 1495 05be C0       	 .byte -64
 1496 05bf 00       	 .byte 0
 1497 05c0 10       	 .byte 16
 1498 05c1 10       	 .byte 16
 1499 05c2 10       	 .byte 16
 1500 05c3 10       	 .byte 16
 1501 05c4 10       	 .byte 16
 1502 05c5 10       	 .byte 16
 1503 05c6 10       	 .byte 16
 1504 05c7 10       	 .byte 16
 1505 05c8 10       	 .byte 16
 1506 05c9 10       	 .byte 16
 1507 05ca 10       	 .byte 16
 1508 05cb 10       	 .byte 16
 1509 05cc 10       	 .byte 16
 1510 05cd 10       	 .byte 16
 1511 05ce 10       	 .byte 16
 1512 05cf 10       	 .byte 16
 1513 05d0 00       	 .byte 0
 1514 05d1 06       	 .byte 6
 1515 05d2 08       	 .byte 8
 1516 05d3 08       	 .byte 8
 1517 05d4 08       	 .byte 8
 1518 05d5 08       	 .byte 8
 1519 05d6 08       	 .byte 8
 1520 05d7 10       	 .byte 16
 1521 05d8 08       	 .byte 8
 1522 05d9 08       	 .byte 8
 1523 05da 08       	 .byte 8
 1524 05db 08       	 .byte 8
 1525 05dc 08       	 .byte 8
 1526 05dd 08       	 .byte 8
 1527 05de 06       	 .byte 6
 1528 05df 00       	 .byte 0
 1529 05e0 0C       	 .byte 12
 1530 05e1 32       	 .byte 50
 1531 05e2 C2       	 .byte -62
 1532 05e3 00       	 .byte 0
 1533 05e4 00       	 .byte 0
 1534 05e5 00       	 .byte 0
 1535 05e6 00       	 .byte 0
 1536 05e7 00       	 .byte 0
 1537 05e8 00       	 .byte 0
 1538 05e9 00       	 .byte 0
 1539 05ea 00       	 .byte 0
 1540 05eb 00       	 .byte 0
 1541 05ec 00       	 .byte 0
 1542 05ed 00       	 .byte 0
 1543 05ee 00       	 .byte 0
 1544 05ef 00       	 .byte 0
 1545              	 .global chinese
 1546              	 .section .rodata.chinese,"a",%progbits
 1547              	 .align 2
 1550              	chinese:
 1551 0000 00       	 .byte 0
 1552 0001 02       	 .byte 2
 1553 0002 00       	 .byte 0
 1554 0003 02       	 .byte 2
 1555 0004 1E       	 .byte 30
 1556 0005 05       	 .byte 5
 1557 0006 92       	 .byte -110
 1558 0007 08       	 .byte 8
 1559 0008 52       	 .byte 82
 1560 0009 10       	 .byte 16
 1561 000a 32       	 .byte 50
 1562 000b 60       	 .byte 96
 1563 000c D2       	 .byte -46
 1564 000d 1F       	 .byte 31
 1565 000e 12       	 .byte 18
 1566 000f 00       	 .byte 0
 1567 0010 12       	 .byte 18
 1568 0011 00       	 .byte 0
 1569 0012 D2       	 .byte -46
 1570 0013 1F       	 .byte 31
 1571 0014 5E       	 .byte 94
 1572 0015 10       	 .byte 16
 1573 0016 52       	 .byte 82
 1574 0017 10       	 .byte 16
 1575 0018 40       	 .byte 64
 1576 0019 10       	 .byte 16
 1577 001a 40       	 .byte 64
 1578 001b 10       	 .byte 16
 1579 001c C0       	 .byte -64
 1580 001d 1F       	 .byte 31
 1581 001e 40       	 .byte 64
 1582 001f 10       	 .byte 16
 1583 0020 10       	 .byte 16
 1584 0021 00       	 .byte 0
 1585 0022 10       	 .byte 16
 1586 0023 00       	 .byte 0
 1587 0024 10       	 .byte 16
 1588 0025 00       	 .byte 0
 1589 0026 F8       	 .byte -8
 1590 0027 3F       	 .byte 63
 1591 0028 08       	 .byte 8
 1592 0029 20       	 .byte 32
 1593 002a 84       	 .byte -124
 1594 002b 10       	 .byte 16
 1595 002c 82       	 .byte -126
 1596 002d 00       	 .byte 0
 1597 002e 81       	 .byte -127
 1598 002f 00       	 .byte 0
 1599 0030 80       	 .byte -128
 1600 0031 00       	 .byte 0
 1601 0032 88       	 .byte -120
 1602 0033 08       	 .byte 8
 1603 0034 88       	 .byte -120
 1604 0035 10       	 .byte 16
 1605 0036 84       	 .byte -124
 1606 0037 20       	 .byte 32
 1607 0038 82       	 .byte -126
 1608 0039 40       	 .byte 64
 1609 003a 81       	 .byte -127
 1610 003b 40       	 .byte 64
 1611 003c A0       	 .byte -96
 1612 003d 00       	 .byte 0
 1613 003e 40       	 .byte 64
 1614 003f 00       	 .byte 0
 1615 0040 00       	 .byte 0
 1616 0041 01       	 .byte 1
 1617 0042 04       	 .byte 4
 1618 0043 02       	 .byte 2
 1619 0044 E8       	 .byte -24
 1620 0045 7F       	 .byte 127
 1621 0046 28       	 .byte 40
 1622 0047 40       	 .byte 64
 1623 0048 11       	 .byte 17
 1624 0049 28       	 .byte 40
 1625 004a C2       	 .byte -62
 1626 004b 07       	 .byte 7
 1627 004c 52       	 .byte 82
 1628 004d 00       	 .byte 0
 1629 004e 50       	 .byte 80
 1630 004f 00       	 .byte 0
 1631 0050 C8       	 .byte -56
 1632 0051 3F       	 .byte 63
 1633 0052 48       	 .byte 72
 1634 0053 08       	 .byte 8
 1635 0054 47       	 .byte 71
 1636 0055 08       	 .byte 8
 1637 0056 F4       	 .byte -12
 1638 0057 7F       	 .byte 127
 1639 0058 04       	 .byte 4
 1640 0059 00       	 .byte 0
 1641 005a 84       	 .byte -124
 1642 005b 08       	 .byte 8
 1643 005c 44       	 .byte 68
 1644 005d 10       	 .byte 16
 1645 005e 20       	 .byte 32
 1646 005f 20       	 .byte 32
 1647 0060 00       	 .byte 0
 1648 0061 00       	 .byte 0
 1649 0062 00       	 .byte 0
 1650 0063 00       	 .byte 0
 1651 0064 FE       	 .byte -2
 1652 0065 3F       	 .byte 63
 1653 0066 80       	 .byte -128
 1654 0067 00       	 .byte 0
 1655 0068 80       	 .byte -128
 1656 0069 00       	 .byte 0
 1657 006a 80       	 .byte -128
 1658 006b 00       	 .byte 0
 1659 006c 80       	 .byte -128
 1660 006d 00       	 .byte 0
 1661 006e 80       	 .byte -128
 1662 006f 00       	 .byte 0
 1663 0070 80       	 .byte -128
 1664 0071 00       	 .byte 0
 1665 0072 80       	 .byte -128
 1666 0073 00       	 .byte 0
 1667 0074 80       	 .byte -128
 1668 0075 00       	 .byte 0
 1669 0076 80       	 .byte -128
 1670 0077 00       	 .byte 0
 1671 0078 80       	 .byte -128
 1672 0079 00       	 .byte 0
 1673 007a FF       	 .byte -1
 1674 007b 7F       	 .byte 127
 1675 007c 00       	 .byte 0
 1676 007d 00       	 .byte 0
 1677 007e 00       	 .byte 0
 1678 007f 00       	 .byte 0
 1679 0080 20       	 .byte 32
 1680 0081 02       	 .byte 2
 1681 0082 20       	 .byte 32
 1682 0083 02       	 .byte 2
 1683 0084 20       	 .byte 32
 1684 0085 02       	 .byte 2
 1685 0086 20       	 .byte 32
 1686 0087 02       	 .byte 2
 1687 0088 22       	 .byte 34
 1688 0089 22       	 .byte 34
 1689 008a 24       	 .byte 36
 1690 008b 22       	 .byte 34
 1691 008c 24       	 .byte 36
 1692 008d 12       	 .byte 18
 1693 008e 28       	 .byte 40
 1694 008f 12       	 .byte 18
 1695 0090 28       	 .byte 40
 1696 0091 0A       	 .byte 10
 1697 0092 28       	 .byte 40
 1698 0093 06       	 .byte 6
 1699 0094 20       	 .byte 32
 1700 0095 02       	 .byte 2
 1701 0096 20       	 .byte 32
 1702 0097 02       	 .byte 2
 1703 0098 20       	 .byte 32
 1704 0099 02       	 .byte 2
 1705 009a 20       	 .byte 32
 1706 009b 02       	 .byte 2
 1707 009c FF       	 .byte -1
 1708 009d 7F       	 .byte 127
 1709 009e 00       	 .byte 0
 1710 009f 00       	 .byte 0
 1711 00a0 80       	 .byte -128
 1712 00a1 00       	 .byte 0
 1713 00a2 80       	 .byte -128
 1714 00a3 00       	 .byte 0
 1715 00a4 80       	 .byte -128
 1716 00a5 00       	 .byte 0
 1717 00a6 80       	 .byte -128
 1718 00a7 00       	 .byte 0
 1719 00a8 80       	 .byte -128
 1720 00a9 00       	 .byte 0
 1721 00aa FF       	 .byte -1
 1722 00ab 7F       	 .byte 127
 1723 00ac 80       	 .byte -128
 1724 00ad 00       	 .byte 0
 1725 00ae 80       	 .byte -128
 1726 00af 00       	 .byte 0
 1727 00b0 40       	 .byte 64
 1728 00b1 01       	 .byte 1
 1729 00b2 40       	 .byte 64
 1730 00b3 01       	 .byte 1
 1731 00b4 20       	 .byte 32
 1732 00b5 02       	 .byte 2
 1733 00b6 20       	 .byte 32
 1734 00b7 02       	 .byte 2
 1735 00b8 10       	 .byte 16
 1736 00b9 04       	 .byte 4
 1737 00ba 08       	 .byte 8
 1738 00bb 08       	 .byte 8
 1739 00bc 04       	 .byte 4
 1740 00bd 10       	 .byte 16
 1741 00be 03       	 .byte 3
 1742 00bf 60       	 .byte 96
 1743 00c0 44       	 .byte 68
 1744 00c1 10       	 .byte 16
 1745 00c2 88       	 .byte -120
 1746 00c3 10       	 .byte 16
 1747 00c4 88       	 .byte -120
 1748 00c5 08       	 .byte 8
 1749 00c6 00       	 .byte 0
 1750 00c7 04       	 .byte 4
 1751 00c8 FE       	 .byte -2
 1752 00c9 7F       	 .byte 127
 1753 00ca 02       	 .byte 2
 1754 00cb 40       	 .byte 64
 1755 00cc 01       	 .byte 1
 1756 00cd 20       	 .byte 32
 1757 00ce F8       	 .byte -8
 1758 00cf 07       	 .byte 7
 1759 00d0 00       	 .byte 0
 1760 00d1 02       	 .byte 2
 1761 00d2 80       	 .byte -128
 1762 00d3 01       	 .byte 1
 1763 00d4 FF       	 .byte -1
 1764 00d5 7F       	 .byte 127
 1765 00d6 80       	 .byte -128
 1766 00d7 00       	 .byte 0
 1767 00d8 80       	 .byte -128
 1768 00d9 00       	 .byte 0
 1769 00da 80       	 .byte -128
 1770 00db 00       	 .byte 0
 1771 00dc A0       	 .byte -96
 1772 00dd 00       	 .byte 0
 1773 00de 40       	 .byte 64
 1774 00df 00       	 .byte 0
 1775              	 .section .text.LGG_SCP_transmit_byte,"ax",%progbits
 1776              	 .align 2
 1777              	 .global LGG_SCP_transmit_byte
 1778              	 .thumb
 1779              	 .thumb_func
 1781              	LGG_SCP_transmit_byte:
 1782              	.LFB319:
 1783              	 .file 1 "../lgg/scp/scp.c"
   1:../lgg/scp/scp.c **** #include "lgg/lgg.h"
   2:../lgg/scp/scp.c **** #include "scp_font.h"
   3:../lgg/scp/scp.c **** 
   4:../lgg/scp/scp.c **** 
   5:../lgg/scp/scp.c **** /*
   6:../lgg/scp/scp.c ****  *   @ Description: ARM Cortex-M based ST7735S LCD Controller Driverlib
   7:../lgg/scp/scp.c ****  *   @ Author:      HIT-hanbo
   8:../lgg/scp/scp.c ****  *   @ History:     2019-07-11  Demo
   9:../lgg/scp/scp.c ****  *   				2019-11-22  Migrate to XMC4500 from STM32
  10:../lgg/scp/scp.c ****  *   				2019-11-23  Fix Bugs
  11:../lgg/scp/scp.c ****  *   				2020-01-18  Add Comments
  12:../lgg/scp/scp.c **** */
  13:../lgg/scp/scp.c **** 
  14:../lgg/scp/scp.c **** 
  15:../lgg/scp/scp.c **** /*
  16:../lgg/scp/scp.c ****  *   @ Brief: transmit a byte to st7735s via SPI interface
  17:../lgg/scp/scp.c ****  *   @ param: data to transmit
  18:../lgg/scp/scp.c ****  */
  19:../lgg/scp/scp.c **** void LGG_SCP_transmit_byte(uint8_t data)
  20:../lgg/scp/scp.c **** {
 1784              	 .loc 1 20 0
 1785              	 .cfi_startproc
 1786              	 
 1787              	 
 1788              	 
 1789 0000 80B4     	 push {r7}
 1790              	.LCFI0:
 1791              	 .cfi_def_cfa_offset 4
 1792              	 .cfi_offset 7,-4
 1793 0002 83B0     	 sub sp,sp,#12
 1794              	.LCFI1:
 1795              	 .cfi_def_cfa_offset 16
 1796 0004 00AF     	 add r7,sp,#0
 1797              	.LCFI2:
 1798              	 .cfi_def_cfa_register 7
 1799 0006 0346     	 mov r3,r0
 1800 0008 FB71     	 strb r3,[r7,#7]
  21:../lgg/scp/scp.c **** 	LGG_SCP_CEN_OUTL;
 1801              	 .loc 1 21 0
 1802 000a 104A     	 ldr r2,.L3
 1803 000c 0F4B     	 ldr r3,.L3
 1804 000e 1B68     	 ldr r3,[r3]
 1805 0010 23F08003 	 bic r3,r3,#128
 1806 0014 1360     	 str r3,[r2]
  22:../lgg/scp/scp.c **** 	//  provide your spi transmit function
  23:../lgg/scp/scp.c **** 	USIC0_CH0->PSCR = (1 << 12);
 1807              	 .loc 1 23 0
 1808 0016 0E4B     	 ldr r3,.L3+4
 1809 0018 4FF48052 	 mov r2,#4096
 1810 001c DA64     	 str r2,[r3,#76]
  24:../lgg/scp/scp.c **** 	USIC0_CH0->TBUF[5] = data;
 1811              	 .loc 1 24 0
 1812 001e 0C4A     	 ldr r2,.L3+4
 1813 0020 FB79     	 ldrb r3,[r7,#7]
 1814 0022 C2F89430 	 str r3,[r2,#148]
  25:../lgg/scp/scp.c **** 	while(
 1815              	 .loc 1 25 0
 1816 0026 00BF     	 nop
 1817              	.L2:
  26:../lgg/scp/scp.c **** 			(USIC0_CH0->PSR_SSCMode & (1 << 12)) == 0
 1818              	 .loc 1 26 0 discriminator 1
 1819 0028 094B     	 ldr r3,.L3+4
 1820 002a 9B6C     	 ldr r3,[r3,#72]
 1821 002c 03F48053 	 and r3,r3,#4096
  25:../lgg/scp/scp.c **** 	while(
 1822              	 .loc 1 25 0 discriminator 1
 1823 0030 002B     	 cmp r3,#0
 1824 0032 F9D0     	 beq .L2
  27:../lgg/scp/scp.c **** 	);
  28:../lgg/scp/scp.c **** 	LGG_SCP_CEN_OUTH;
 1825              	 .loc 1 28 0
 1826 0034 054A     	 ldr r2,.L3
 1827 0036 054B     	 ldr r3,.L3
 1828 0038 1B68     	 ldr r3,[r3]
 1829 003a 43F08003 	 orr r3,r3,#128
 1830 003e 1360     	 str r3,[r2]
  29:../lgg/scp/scp.c **** }
 1831              	 .loc 1 29 0
 1832 0040 0C37     	 adds r7,r7,#12
 1833              	.LCFI3:
 1834              	 .cfi_def_cfa_offset 4
 1835 0042 BD46     	 mov sp,r7
 1836              	.LCFI4:
 1837              	 .cfi_def_cfa_register 13
 1838              	 
 1839 0044 5DF8047B 	 ldr r7,[sp],#4
 1840              	.LCFI5:
 1841              	 .cfi_restore 7
 1842              	 .cfi_def_cfa_offset 0
 1843 0048 7047     	 bx lr
 1844              	.L4:
 1845 004a 00BF     	 .align 2
 1846              	.L3:
 1847 004c 00800248 	 .word 1208123392
 1848 0050 00000340 	 .word 1073938432
 1849              	 .cfi_endproc
 1850              	.LFE319:
 1852              	 .section .text.LGG_SCP_transmit_cmd,"ax",%progbits
 1853              	 .align 2
 1854              	 .global LGG_SCP_transmit_cmd
 1855              	 .thumb
 1856              	 .thumb_func
 1858              	LGG_SCP_transmit_cmd:
 1859              	.LFB320:
  30:../lgg/scp/scp.c **** 
  31:../lgg/scp/scp.c **** /*
  32:../lgg/scp/scp.c ****  *   @ Brief: transmit a REGISTER address to st7735s (write command)
  33:../lgg/scp/scp.c ****  *   @ param: cmd to transmit
  34:../lgg/scp/scp.c ****  */
  35:../lgg/scp/scp.c **** void LGG_SCP_transmit_cmd(uint8_t cmd)
  36:../lgg/scp/scp.c **** {
 1860              	 .loc 1 36 0
 1861              	 .cfi_startproc
 1862              	 
 1863              	 
 1864 0000 80B5     	 push {r7,lr}
 1865              	.LCFI6:
 1866              	 .cfi_def_cfa_offset 8
 1867              	 .cfi_offset 7,-8
 1868              	 .cfi_offset 14,-4
 1869 0002 82B0     	 sub sp,sp,#8
 1870              	.LCFI7:
 1871              	 .cfi_def_cfa_offset 16
 1872 0004 00AF     	 add r7,sp,#0
 1873              	.LCFI8:
 1874              	 .cfi_def_cfa_register 7
 1875 0006 0346     	 mov r3,r0
 1876 0008 FB71     	 strb r3,[r7,#7]
  37:../lgg/scp/scp.c **** 	LGG_SCP_DC_OUTL;
 1877              	 .loc 1 37 0
 1878 000a 064A     	 ldr r2,.L6
 1879 000c 054B     	 ldr r3,.L6
 1880 000e 1B68     	 ldr r3,[r3]
 1881 0010 23F02003 	 bic r3,r3,#32
 1882 0014 1360     	 str r3,[r2]
  38:../lgg/scp/scp.c **** 	LGG_SCP_transmit_byte(cmd);
 1883              	 .loc 1 38 0
 1884 0016 FB79     	 ldrb r3,[r7,#7]
 1885 0018 1846     	 mov r0,r3
 1886 001a FFF7FEFF 	 bl LGG_SCP_transmit_byte
  39:../lgg/scp/scp.c **** }
 1887              	 .loc 1 39 0
 1888 001e 0837     	 adds r7,r7,#8
 1889              	.LCFI9:
 1890              	 .cfi_def_cfa_offset 8
 1891 0020 BD46     	 mov sp,r7
 1892              	.LCFI10:
 1893              	 .cfi_def_cfa_register 13
 1894              	 
 1895 0022 80BD     	 pop {r7,pc}
 1896              	.L7:
 1897              	 .align 2
 1898              	.L6:
 1899 0024 00800248 	 .word 1208123392
 1900              	 .cfi_endproc
 1901              	.LFE320:
 1903              	 .section .text.LGG_SCP_transmit_data8,"ax",%progbits
 1904              	 .align 2
 1905              	 .global LGG_SCP_transmit_data8
 1906              	 .thumb
 1907              	 .thumb_func
 1909              	LGG_SCP_transmit_data8:
 1910              	.LFB321:
  40:../lgg/scp/scp.c **** 
  41:../lgg/scp/scp.c **** /*
  42:../lgg/scp/scp.c ****  *   @ Brief: transmit a BYTE DATA to st7735s (write data)
  43:../lgg/scp/scp.c ****  *   @ param: data byte to transmit
  44:../lgg/scp/scp.c ****  */
  45:../lgg/scp/scp.c **** void LGG_SCP_transmit_data8(uint8_t data)
  46:../lgg/scp/scp.c **** {
 1911              	 .loc 1 46 0
 1912              	 .cfi_startproc
 1913              	 
 1914              	 
 1915 0000 80B5     	 push {r7,lr}
 1916              	.LCFI11:
 1917              	 .cfi_def_cfa_offset 8
 1918              	 .cfi_offset 7,-8
 1919              	 .cfi_offset 14,-4
 1920 0002 82B0     	 sub sp,sp,#8
 1921              	.LCFI12:
 1922              	 .cfi_def_cfa_offset 16
 1923 0004 00AF     	 add r7,sp,#0
 1924              	.LCFI13:
 1925              	 .cfi_def_cfa_register 7
 1926 0006 0346     	 mov r3,r0
 1927 0008 FB71     	 strb r3,[r7,#7]
  47:../lgg/scp/scp.c **** 	LGG_SCP_DC_OUTH;
 1928              	 .loc 1 47 0
 1929 000a 064A     	 ldr r2,.L9
 1930 000c 054B     	 ldr r3,.L9
 1931 000e 1B68     	 ldr r3,[r3]
 1932 0010 43F02003 	 orr r3,r3,#32
 1933 0014 1360     	 str r3,[r2]
  48:../lgg/scp/scp.c **** 	LGG_SCP_transmit_byte(data);
 1934              	 .loc 1 48 0
 1935 0016 FB79     	 ldrb r3,[r7,#7]
 1936 0018 1846     	 mov r0,r3
 1937 001a FFF7FEFF 	 bl LGG_SCP_transmit_byte
  49:../lgg/scp/scp.c **** }
 1938              	 .loc 1 49 0
 1939 001e 0837     	 adds r7,r7,#8
 1940              	.LCFI14:
 1941              	 .cfi_def_cfa_offset 8
 1942 0020 BD46     	 mov sp,r7
 1943              	.LCFI15:
 1944              	 .cfi_def_cfa_register 13
 1945              	 
 1946 0022 80BD     	 pop {r7,pc}
 1947              	.L10:
 1948              	 .align 2
 1949              	.L9:
 1950 0024 00800248 	 .word 1208123392
 1951              	 .cfi_endproc
 1952              	.LFE321:
 1954              	 .section .text.LGG_SCP_transmit_data16,"ax",%progbits
 1955              	 .align 2
 1956              	 .global LGG_SCP_transmit_data16
 1957              	 .thumb
 1958              	 .thumb_func
 1960              	LGG_SCP_transmit_data16:
 1961              	.LFB322:
  50:../lgg/scp/scp.c **** 
  51:../lgg/scp/scp.c **** /*
  52:../lgg/scp/scp.c ****  *   @ Brief: transmit a HALFWORD DATA to st7735s (write data)
  53:../lgg/scp/scp.c ****  *   @ param: data halfword to transmit
  54:../lgg/scp/scp.c ****  */
  55:../lgg/scp/scp.c **** void LGG_SCP_transmit_data16(uint16_t data)
  56:../lgg/scp/scp.c **** {
 1962              	 .loc 1 56 0
 1963              	 .cfi_startproc
 1964              	 
 1965              	 
 1966 0000 80B5     	 push {r7,lr}
 1967              	.LCFI16:
 1968              	 .cfi_def_cfa_offset 8
 1969              	 .cfi_offset 7,-8
 1970              	 .cfi_offset 14,-4
 1971 0002 82B0     	 sub sp,sp,#8
 1972              	.LCFI17:
 1973              	 .cfi_def_cfa_offset 16
 1974 0004 00AF     	 add r7,sp,#0
 1975              	.LCFI18:
 1976              	 .cfi_def_cfa_register 7
 1977 0006 0346     	 mov r3,r0
 1978 0008 FB80     	 strh r3,[r7,#6]
  57:../lgg/scp/scp.c **** 	LGG_SCP_DC_OUTH;
 1979              	 .loc 1 57 0
 1980 000a 0A4A     	 ldr r2,.L12
 1981 000c 094B     	 ldr r3,.L12
 1982 000e 1B68     	 ldr r3,[r3]
 1983 0010 43F02003 	 orr r3,r3,#32
 1984 0014 1360     	 str r3,[r2]
  58:../lgg/scp/scp.c **** 	LGG_SCP_transmit_byte(data >> 8);
 1985              	 .loc 1 58 0
 1986 0016 FB88     	 ldrh r3,[r7,#6]
 1987 0018 1B0A     	 lsrs r3,r3,#8
 1988 001a 9BB2     	 uxth r3,r3
 1989 001c DBB2     	 uxtb r3,r3
 1990 001e 1846     	 mov r0,r3
 1991 0020 FFF7FEFF 	 bl LGG_SCP_transmit_byte
  59:../lgg/scp/scp.c **** 	LGG_SCP_transmit_byte(data);
 1992              	 .loc 1 59 0
 1993 0024 FB88     	 ldrh r3,[r7,#6]
 1994 0026 DBB2     	 uxtb r3,r3
 1995 0028 1846     	 mov r0,r3
 1996 002a FFF7FEFF 	 bl LGG_SCP_transmit_byte
  60:../lgg/scp/scp.c **** }
 1997              	 .loc 1 60 0
 1998 002e 0837     	 adds r7,r7,#8
 1999              	.LCFI19:
 2000              	 .cfi_def_cfa_offset 8
 2001 0030 BD46     	 mov sp,r7
 2002              	.LCFI20:
 2003              	 .cfi_def_cfa_register 13
 2004              	 
 2005 0032 80BD     	 pop {r7,pc}
 2006              	.L13:
 2007              	 .align 2
 2008              	.L12:
 2009 0034 00800248 	 .word 1208123392
 2010              	 .cfi_endproc
 2011              	.LFE322:
 2013              	 .section .text.LGG_SCP_address_set,"ax",%progbits
 2014              	 .align 2
 2015              	 .global LGG_SCP_address_set
 2016              	 .thumb
 2017              	 .thumb_func
 2019              	LGG_SCP_address_set:
 2020              	.LFB323:
  61:../lgg/scp/scp.c **** 
  62:../lgg/scp/scp.c **** /*
  63:../lgg/scp/scp.c ****  *  @ Brief: set LCD address to option
  64:../lgg/scp/scp.c ****  *  @ param: (x1, y1) - start address , (x2, y2) - stop address
  65:../lgg/scp/scp.c ****  */
  66:../lgg/scp/scp.c **** void LGG_SCP_address_set(uint8_t x1, uint8_t y1, uint8_t x2, uint8_t y2)
  67:../lgg/scp/scp.c **** {
 2021              	 .loc 1 67 0
 2022              	 .cfi_startproc
 2023              	 
 2024              	 
 2025 0000 90B5     	 push {r4,r7,lr}
 2026              	.LCFI21:
 2027              	 .cfi_def_cfa_offset 12
 2028              	 .cfi_offset 4,-12
 2029              	 .cfi_offset 7,-8
 2030              	 .cfi_offset 14,-4
 2031 0002 83B0     	 sub sp,sp,#12
 2032              	.LCFI22:
 2033              	 .cfi_def_cfa_offset 24
 2034 0004 00AF     	 add r7,sp,#0
 2035              	.LCFI23:
 2036              	 .cfi_def_cfa_register 7
 2037 0006 0446     	 mov r4,r0
 2038 0008 0846     	 mov r0,r1
 2039 000a 1146     	 mov r1,r2
 2040 000c 1A46     	 mov r2,r3
 2041 000e 2346     	 mov r3,r4
 2042 0010 FB71     	 strb r3,[r7,#7]
 2043 0012 0346     	 mov r3,r0
 2044 0014 BB71     	 strb r3,[r7,#6]
 2045 0016 0B46     	 mov r3,r1
 2046 0018 7B71     	 strb r3,[r7,#5]
 2047 001a 1346     	 mov r3,r2
 2048 001c 3B71     	 strb r3,[r7,#4]
  68:../lgg/scp/scp.c **** #ifdef LGG_SCP_OP_POTRAIT
  69:../lgg/scp/scp.c **** 	LGG_SCP_transmit_cmd(0x2A);
 2049              	 .loc 1 69 0
 2050 001e 2A20     	 movs r0,#42
 2051 0020 FFF7FEFF 	 bl LGG_SCP_transmit_cmd
  70:../lgg/scp/scp.c **** 	LGG_SCP_transmit_data8(0x00);
 2052              	 .loc 1 70 0
 2053 0024 0020     	 movs r0,#0
 2054 0026 FFF7FEFF 	 bl LGG_SCP_transmit_data8
  71:../lgg/scp/scp.c **** 	LGG_SCP_transmit_data8(x1 + 2);
 2055              	 .loc 1 71 0
 2056 002a FB79     	 ldrb r3,[r7,#7]
 2057 002c 0233     	 adds r3,r3,#2
 2058 002e DBB2     	 uxtb r3,r3
 2059 0030 1846     	 mov r0,r3
 2060 0032 FFF7FEFF 	 bl LGG_SCP_transmit_data8
  72:../lgg/scp/scp.c **** 	LGG_SCP_transmit_data8(0x00);
 2061              	 .loc 1 72 0
 2062 0036 0020     	 movs r0,#0
 2063 0038 FFF7FEFF 	 bl LGG_SCP_transmit_data8
  73:../lgg/scp/scp.c **** 	LGG_SCP_transmit_data8(x2 + 2);
 2064              	 .loc 1 73 0
 2065 003c 7B79     	 ldrb r3,[r7,#5]
 2066 003e 0233     	 adds r3,r3,#2
 2067 0040 DBB2     	 uxtb r3,r3
 2068 0042 1846     	 mov r0,r3
 2069 0044 FFF7FEFF 	 bl LGG_SCP_transmit_data8
  74:../lgg/scp/scp.c **** 
  75:../lgg/scp/scp.c **** 	LGG_SCP_transmit_cmd(0x2B);
 2070              	 .loc 1 75 0
 2071 0048 2B20     	 movs r0,#43
 2072 004a FFF7FEFF 	 bl LGG_SCP_transmit_cmd
  76:../lgg/scp/scp.c **** 	LGG_SCP_transmit_data8(0x00);
 2073              	 .loc 1 76 0
 2074 004e 0020     	 movs r0,#0
 2075 0050 FFF7FEFF 	 bl LGG_SCP_transmit_data8
  77:../lgg/scp/scp.c **** 	LGG_SCP_transmit_data8(y1 + 1);
 2076              	 .loc 1 77 0
 2077 0054 BB79     	 ldrb r3,[r7,#6]
 2078 0056 0133     	 adds r3,r3,#1
 2079 0058 DBB2     	 uxtb r3,r3
 2080 005a 1846     	 mov r0,r3
 2081 005c FFF7FEFF 	 bl LGG_SCP_transmit_data8
  78:../lgg/scp/scp.c **** 	LGG_SCP_transmit_data8(0x00);
 2082              	 .loc 1 78 0
 2083 0060 0020     	 movs r0,#0
 2084 0062 FFF7FEFF 	 bl LGG_SCP_transmit_data8
  79:../lgg/scp/scp.c **** 	LGG_SCP_transmit_data8(y2 + 1);
 2085              	 .loc 1 79 0
 2086 0066 3B79     	 ldrb r3,[r7,#4]
 2087 0068 0133     	 adds r3,r3,#1
 2088 006a DBB2     	 uxtb r3,r3
 2089 006c 1846     	 mov r0,r3
 2090 006e FFF7FEFF 	 bl LGG_SCP_transmit_data8
  80:../lgg/scp/scp.c **** #endif
  81:../lgg/scp/scp.c **** #ifdef LGG_SCP_OP_LANDSCAPE
  82:../lgg/scp/scp.c **** 	LGG_SCP_transmit_cmd(0x2A);
  83:../lgg/scp/scp.c **** 	LGG_SCP_transmit_data8(0x00);
  84:../lgg/scp/scp.c **** 	LGG_SCP_transmit_data8(x1 + 1);
  85:../lgg/scp/scp.c **** 	LGG_SCP_transmit_data8(0x00);
  86:../lgg/scp/scp.c **** 	LGG_SCP_transmit_data8(x2 + 1);
  87:../lgg/scp/scp.c **** 
  88:../lgg/scp/scp.c **** 	LGG_SCP_transmit_cmd(0x2B);
  89:../lgg/scp/scp.c **** 	LGG_SCP_transmit_data8(0x00);
  90:../lgg/scp/scp.c **** 	LGG_SCP_transmit_data8(y1 + 2);
  91:../lgg/scp/scp.c **** 	LGG_SCP_transmit_data8(0x00);
  92:../lgg/scp/scp.c **** 	LGG_SCP_transmit_data8(y2 + 2);
  93:../lgg/scp/scp.c **** #endif
  94:../lgg/scp/scp.c **** 	LGG_SCP_transmit_cmd(0x2C);
 2091              	 .loc 1 94 0
 2092 0072 2C20     	 movs r0,#44
 2093 0074 FFF7FEFF 	 bl LGG_SCP_transmit_cmd
  95:../lgg/scp/scp.c **** }
 2094              	 .loc 1 95 0
 2095 0078 0C37     	 adds r7,r7,#12
 2096              	.LCFI24:
 2097              	 .cfi_def_cfa_offset 12
 2098 007a BD46     	 mov sp,r7
 2099              	.LCFI25:
 2100              	 .cfi_def_cfa_register 13
 2101              	 
 2102 007c 90BD     	 pop {r4,r7,pc}
 2103              	 .cfi_endproc
 2104              	.LFE323:
 2106 007e 00BF     	 .section .text.LGG_SCP_init,"ax",%progbits
 2107              	 .align 2
 2108              	 .global LGG_SCP_init
 2109              	 .thumb
 2110              	 .thumb_func
 2112              	LGG_SCP_init:
 2113              	.LFB324:
  96:../lgg/scp/scp.c **** 
  97:../lgg/scp/scp.c **** /*
  98:../lgg/scp/scp.c ****  *  @ Brief: init st7735s controller
  99:../lgg/scp/scp.c ****  */
 100:../lgg/scp/scp.c **** void LGG_SCP_init(void)
 101:../lgg/scp/scp.c **** {
 2114              	 .loc 1 101 0
 2115              	 .cfi_startproc
 2116              	 
 2117              	 
 2118 0000 80B5     	 push {r7,lr}
 2119              	.LCFI26:
 2120              	 .cfi_def_cfa_offset 8
 2121              	 .cfi_offset 7,-8
 2122              	 .cfi_offset 14,-4
 2123 0002 00AF     	 add r7,sp,#0
 2124              	.LCFI27:
 2125              	 .cfi_def_cfa_register 7
 102:../lgg/scp/scp.c **** 	lgg_bsp_scp_init();
 2126              	 .loc 1 102 0
 2127 0004 FFF7FEFF 	 bl lgg_bsp_scp_init
 103:../lgg/scp/scp.c **** 	LGG_SCP_DC_OUTH;
 2128              	 .loc 1 103 0
 2129 0008 824A     	 ldr r2,.L16
 2130 000a 824B     	 ldr r3,.L16
 2131 000c 1B68     	 ldr r3,[r3]
 2132 000e 43F02003 	 orr r3,r3,#32
 2133 0012 1360     	 str r3,[r2]
 104:../lgg/scp/scp.c **** 	LGG_SCP_RES_OUTH;
 2134              	 .loc 1 104 0
 2135 0014 7F4A     	 ldr r2,.L16
 2136 0016 7F4B     	 ldr r3,.L16
 2137 0018 1B68     	 ldr r3,[r3]
 2138 001a 43F04003 	 orr r3,r3,#64
 2139 001e 1360     	 str r3,[r2]
 105:../lgg/scp/scp.c **** 	LGG_SCP_CEN_OUTH;
 2140              	 .loc 1 105 0
 2141 0020 7C4A     	 ldr r2,.L16
 2142 0022 7C4B     	 ldr r3,.L16
 2143 0024 1B68     	 ldr r3,[r3]
 2144 0026 43F08003 	 orr r3,r3,#128
 2145 002a 1360     	 str r3,[r2]
 106:../lgg/scp/scp.c **** 	/* firstly reset */
 107:../lgg/scp/scp.c **** 	LGG_SCP_RES_OUTL;
 2146              	 .loc 1 107 0
 2147 002c 794A     	 ldr r2,.L16
 2148 002e 794B     	 ldr r3,.L16
 2149 0030 1B68     	 ldr r3,[r3]
 2150 0032 23F04003 	 bic r3,r3,#64
 2151 0036 1360     	 str r3,[r2]
 108:../lgg/scp/scp.c **** 	lgg_delay(200);
 2152              	 .loc 1 108 0
 2153 0038 C820     	 movs r0,#200
 2154 003a FFF7FEFF 	 bl lgg_delay
 109:../lgg/scp/scp.c **** 	LGG_SCP_RES_OUTH;
 2155              	 .loc 1 109 0
 2156 003e 754A     	 ldr r2,.L16
 2157 0040 744B     	 ldr r3,.L16
 2158 0042 1B68     	 ldr r3,[r3]
 2159 0044 43F04003 	 orr r3,r3,#64
 2160 0048 1360     	 str r3,[r2]
 110:../lgg/scp/scp.c **** 	lgg_delay(200);
 2161              	 .loc 1 110 0
 2162 004a C820     	 movs r0,#200
 2163 004c FFF7FEFF 	 bl lgg_delay
 111:../lgg/scp/scp.c **** 
 112:../lgg/scp/scp.c **** 	/* initial lcd */
 113:../lgg/scp/scp.c **** 	LGG_SCP_transmit_cmd(0x11);
 2164              	 .loc 1 113 0
 2165 0050 1120     	 movs r0,#17
 2166 0052 FFF7FEFF 	 bl LGG_SCP_transmit_cmd
 114:../lgg/scp/scp.c **** 	lgg_delay(200);
 2167              	 .loc 1 114 0
 2168 0056 C820     	 movs r0,#200
 2169 0058 FFF7FEFF 	 bl lgg_delay
 115:../lgg/scp/scp.c **** 
 116:../lgg/scp/scp.c **** 	LGG_SCP_transmit_cmd(0xB1);
 2170              	 .loc 1 116 0
 2171 005c B120     	 movs r0,#177
 2172 005e FFF7FEFF 	 bl LGG_SCP_transmit_cmd
 117:../lgg/scp/scp.c **** 	LGG_SCP_transmit_data8(0x05);	LGG_SCP_transmit_data8(0x3C);	LGG_SCP_transmit_data8(0x3C);
 2173              	 .loc 1 117 0
 2174 0062 0520     	 movs r0,#5
 2175 0064 FFF7FEFF 	 bl LGG_SCP_transmit_data8
 2176 0068 3C20     	 movs r0,#60
 2177 006a FFF7FEFF 	 bl LGG_SCP_transmit_data8
 2178 006e 3C20     	 movs r0,#60
 2179 0070 FFF7FEFF 	 bl LGG_SCP_transmit_data8
 118:../lgg/scp/scp.c **** 	LGG_SCP_transmit_cmd(0xB2);
 2180              	 .loc 1 118 0
 2181 0074 B220     	 movs r0,#178
 2182 0076 FFF7FEFF 	 bl LGG_SCP_transmit_cmd
 119:../lgg/scp/scp.c **** 	LGG_SCP_transmit_data8(0x05);	LGG_SCP_transmit_data8(0x3C);	LGG_SCP_transmit_data8(0x3C);
 2183              	 .loc 1 119 0
 2184 007a 0520     	 movs r0,#5
 2185 007c FFF7FEFF 	 bl LGG_SCP_transmit_data8
 2186 0080 3C20     	 movs r0,#60
 2187 0082 FFF7FEFF 	 bl LGG_SCP_transmit_data8
 2188 0086 3C20     	 movs r0,#60
 2189 0088 FFF7FEFF 	 bl LGG_SCP_transmit_data8
 120:../lgg/scp/scp.c **** 	LGG_SCP_transmit_cmd(0xB3);
 2190              	 .loc 1 120 0
 2191 008c B320     	 movs r0,#179
 2192 008e FFF7FEFF 	 bl LGG_SCP_transmit_cmd
 121:../lgg/scp/scp.c **** 	LGG_SCP_transmit_data8(0x05);	LGG_SCP_transmit_data8(0x3C);	LGG_SCP_transmit_data8(0x3C);
 2193              	 .loc 1 121 0
 2194 0092 0520     	 movs r0,#5
 2195 0094 FFF7FEFF 	 bl LGG_SCP_transmit_data8
 2196 0098 3C20     	 movs r0,#60
 2197 009a FFF7FEFF 	 bl LGG_SCP_transmit_data8
 2198 009e 3C20     	 movs r0,#60
 2199 00a0 FFF7FEFF 	 bl LGG_SCP_transmit_data8
 122:../lgg/scp/scp.c **** 	LGG_SCP_transmit_data8(0x05);	LGG_SCP_transmit_data8(0x3C);	LGG_SCP_transmit_data8(0x3C);
 2200              	 .loc 1 122 0
 2201 00a4 0520     	 movs r0,#5
 2202 00a6 FFF7FEFF 	 bl LGG_SCP_transmit_data8
 2203 00aa 3C20     	 movs r0,#60
 2204 00ac FFF7FEFF 	 bl LGG_SCP_transmit_data8
 2205 00b0 3C20     	 movs r0,#60
 2206 00b2 FFF7FEFF 	 bl LGG_SCP_transmit_data8
 123:../lgg/scp/scp.c **** 
 124:../lgg/scp/scp.c **** 	LGG_SCP_transmit_cmd(0xB4);
 2207              	 .loc 1 124 0
 2208 00b6 B420     	 movs r0,#180
 2209 00b8 FFF7FEFF 	 bl LGG_SCP_transmit_cmd
 125:../lgg/scp/scp.c **** 	LGG_SCP_transmit_data8(0x03);
 2210              	 .loc 1 125 0
 2211 00bc 0320     	 movs r0,#3
 2212 00be FFF7FEFF 	 bl LGG_SCP_transmit_data8
 126:../lgg/scp/scp.c **** 
 127:../lgg/scp/scp.c **** 	LGG_SCP_transmit_cmd(0xC0);
 2213              	 .loc 1 127 0
 2214 00c2 C020     	 movs r0,#192
 2215 00c4 FFF7FEFF 	 bl LGG_SCP_transmit_cmd
 128:../lgg/scp/scp.c **** 	LGG_SCP_transmit_data8(0x28);	LGG_SCP_transmit_data8(0x08);	LGG_SCP_transmit_data8(0x04);
 2216              	 .loc 1 128 0
 2217 00c8 2820     	 movs r0,#40
 2218 00ca FFF7FEFF 	 bl LGG_SCP_transmit_data8
 2219 00ce 0820     	 movs r0,#8
 2220 00d0 FFF7FEFF 	 bl LGG_SCP_transmit_data8
 2221 00d4 0420     	 movs r0,#4
 2222 00d6 FFF7FEFF 	 bl LGG_SCP_transmit_data8
 129:../lgg/scp/scp.c **** 	LGG_SCP_transmit_cmd(0xC1);
 2223              	 .loc 1 129 0
 2224 00da C120     	 movs r0,#193
 2225 00dc FFF7FEFF 	 bl LGG_SCP_transmit_cmd
 130:../lgg/scp/scp.c **** 	LGG_SCP_transmit_data8(0xC0);
 2226              	 .loc 1 130 0
 2227 00e0 C020     	 movs r0,#192
 2228 00e2 FFF7FEFF 	 bl LGG_SCP_transmit_data8
 131:../lgg/scp/scp.c **** 	LGG_SCP_transmit_cmd(0xC2);
 2229              	 .loc 1 131 0
 2230 00e6 C220     	 movs r0,#194
 2231 00e8 FFF7FEFF 	 bl LGG_SCP_transmit_cmd
 132:../lgg/scp/scp.c **** 	LGG_SCP_transmit_data8(0x0D);	LGG_SCP_transmit_data8(0x00);
 2232              	 .loc 1 132 0
 2233 00ec 0D20     	 movs r0,#13
 2234 00ee FFF7FEFF 	 bl LGG_SCP_transmit_data8
 2235 00f2 0020     	 movs r0,#0
 2236 00f4 FFF7FEFF 	 bl LGG_SCP_transmit_data8
 133:../lgg/scp/scp.c **** 	LGG_SCP_transmit_cmd(0xC3);
 2237              	 .loc 1 133 0
 2238 00f8 C320     	 movs r0,#195
 2239 00fa FFF7FEFF 	 bl LGG_SCP_transmit_cmd
 134:../lgg/scp/scp.c **** 	LGG_SCP_transmit_data8(0x8D);	LGG_SCP_transmit_data8(0x2A);
 2240              	 .loc 1 134 0
 2241 00fe 8D20     	 movs r0,#141
 2242 0100 FFF7FEFF 	 bl LGG_SCP_transmit_data8
 2243 0104 2A20     	 movs r0,#42
 2244 0106 FFF7FEFF 	 bl LGG_SCP_transmit_data8
 135:../lgg/scp/scp.c **** 	LGG_SCP_transmit_cmd(0xC4);
 2245              	 .loc 1 135 0
 2246 010a C420     	 movs r0,#196
 2247 010c FFF7FEFF 	 bl LGG_SCP_transmit_cmd
 136:../lgg/scp/scp.c **** 	LGG_SCP_transmit_data8(0x8D);	LGG_SCP_transmit_data8(0xEE);
 2248              	 .loc 1 136 0
 2249 0110 8D20     	 movs r0,#141
 2250 0112 FFF7FEFF 	 bl LGG_SCP_transmit_data8
 2251 0116 EE20     	 movs r0,#238
 2252 0118 FFF7FEFF 	 bl LGG_SCP_transmit_data8
 137:../lgg/scp/scp.c **** 	LGG_SCP_transmit_cmd(0xC5);
 2253              	 .loc 1 137 0
 2254 011c C520     	 movs r0,#197
 2255 011e FFF7FEFF 	 bl LGG_SCP_transmit_cmd
 138:../lgg/scp/scp.c **** 	LGG_SCP_transmit_data8(0x1A);
 2256              	 .loc 1 138 0
 2257 0122 1A20     	 movs r0,#26
 2258 0124 FFF7FEFF 	 bl LGG_SCP_transmit_data8
 139:../lgg/scp/scp.c **** 	LGG_SCP_transmit_cmd(0x36);
 2259              	 .loc 1 139 0
 2260 0128 3620     	 movs r0,#54
 2261 012a FFF7FEFF 	 bl LGG_SCP_transmit_cmd
 140:../lgg/scp/scp.c **** #ifdef LGG_SCP_OP_POTRAIT
 141:../lgg/scp/scp.c **** 	LGG_SCP_transmit_data8(0xC0);
 2262              	 .loc 1 141 0
 2263 012e C020     	 movs r0,#192
 2264 0130 FFF7FEFF 	 bl LGG_SCP_transmit_data8
 142:../lgg/scp/scp.c **** #endif
 143:../lgg/scp/scp.c **** #ifdef LGG_SCP_OP_LANDSCAPE
 144:../lgg/scp/scp.c **** 	LGG_SCP_transmit_data8(0xA0);
 145:../lgg/scp/scp.c **** #endif
 146:../lgg/scp/scp.c **** 	LGG_SCP_transmit_cmd(0xE0);
 2265              	 .loc 1 146 0
 2266 0134 E020     	 movs r0,#224
 2267 0136 FFF7FEFF 	 bl LGG_SCP_transmit_cmd
 147:../lgg/scp/scp.c **** 	LGG_SCP_transmit_data8(0x04);	LGG_SCP_transmit_data8(0x22);	LGG_SCP_transmit_data8(0x07);
 2268              	 .loc 1 147 0
 2269 013a 0420     	 movs r0,#4
 2270 013c FFF7FEFF 	 bl LGG_SCP_transmit_data8
 2271 0140 2220     	 movs r0,#34
 2272 0142 FFF7FEFF 	 bl LGG_SCP_transmit_data8
 2273 0146 0720     	 movs r0,#7
 2274 0148 FFF7FEFF 	 bl LGG_SCP_transmit_data8
 148:../lgg/scp/scp.c **** 	LGG_SCP_transmit_data8(0x0A);	LGG_SCP_transmit_data8(0x2E);	LGG_SCP_transmit_data8(0x30);
 2275              	 .loc 1 148 0
 2276 014c 0A20     	 movs r0,#10
 2277 014e FFF7FEFF 	 bl LGG_SCP_transmit_data8
 2278 0152 2E20     	 movs r0,#46
 2279 0154 FFF7FEFF 	 bl LGG_SCP_transmit_data8
 2280 0158 3020     	 movs r0,#48
 2281 015a FFF7FEFF 	 bl LGG_SCP_transmit_data8
 149:../lgg/scp/scp.c **** 	LGG_SCP_transmit_data8(0x25);	LGG_SCP_transmit_data8(0x2A);	LGG_SCP_transmit_data8(0x28);
 2282              	 .loc 1 149 0
 2283 015e 2520     	 movs r0,#37
 2284 0160 FFF7FEFF 	 bl LGG_SCP_transmit_data8
 2285 0164 2A20     	 movs r0,#42
 2286 0166 FFF7FEFF 	 bl LGG_SCP_transmit_data8
 2287 016a 2820     	 movs r0,#40
 2288 016c FFF7FEFF 	 bl LGG_SCP_transmit_data8
 150:../lgg/scp/scp.c **** 	LGG_SCP_transmit_data8(0x26);	LGG_SCP_transmit_data8(0x2E);	LGG_SCP_transmit_data8(0x3A);
 2289              	 .loc 1 150 0
 2290 0170 2620     	 movs r0,#38
 2291 0172 FFF7FEFF 	 bl LGG_SCP_transmit_data8
 2292 0176 2E20     	 movs r0,#46
 2293 0178 FFF7FEFF 	 bl LGG_SCP_transmit_data8
 2294 017c 3A20     	 movs r0,#58
 2295 017e FFF7FEFF 	 bl LGG_SCP_transmit_data8
 151:../lgg/scp/scp.c **** 	LGG_SCP_transmit_data8(0x00);	LGG_SCP_transmit_data8(0x01);	LGG_SCP_transmit_data8(0x03);
 2296              	 .loc 1 151 0
 2297 0182 0020     	 movs r0,#0
 2298 0184 FFF7FEFF 	 bl LGG_SCP_transmit_data8
 2299 0188 0120     	 movs r0,#1
 2300 018a FFF7FEFF 	 bl LGG_SCP_transmit_data8
 2301 018e 0320     	 movs r0,#3
 2302 0190 FFF7FEFF 	 bl LGG_SCP_transmit_data8
 152:../lgg/scp/scp.c **** 	LGG_SCP_transmit_data8(0x13);
 2303              	 .loc 1 152 0
 2304 0194 1320     	 movs r0,#19
 2305 0196 FFF7FEFF 	 bl LGG_SCP_transmit_data8
 153:../lgg/scp/scp.c **** 
 154:../lgg/scp/scp.c **** 	LGG_SCP_transmit_cmd(0xE1);
 2306              	 .loc 1 154 0
 2307 019a E120     	 movs r0,#225
 2308 019c FFF7FEFF 	 bl LGG_SCP_transmit_cmd
 155:../lgg/scp/scp.c **** 	LGG_SCP_transmit_data8(0x04); LGG_SCP_transmit_data8(0x16); LGG_SCP_transmit_data8(0x06);
 2309              	 .loc 1 155 0
 2310 01a0 0420     	 movs r0,#4
 2311 01a2 FFF7FEFF 	 bl LGG_SCP_transmit_data8
 2312 01a6 1620     	 movs r0,#22
 2313 01a8 FFF7FEFF 	 bl LGG_SCP_transmit_data8
 2314 01ac 0620     	 movs r0,#6
 2315 01ae FFF7FEFF 	 bl LGG_SCP_transmit_data8
 156:../lgg/scp/scp.c **** 	LGG_SCP_transmit_data8(0x0D); LGG_SCP_transmit_data8(0x2D); LGG_SCP_transmit_data8(0x26);
 2316              	 .loc 1 156 0
 2317 01b2 0D20     	 movs r0,#13
 2318 01b4 FFF7FEFF 	 bl LGG_SCP_transmit_data8
 2319 01b8 2D20     	 movs r0,#45
 2320 01ba FFF7FEFF 	 bl LGG_SCP_transmit_data8
 2321 01be 2620     	 movs r0,#38
 2322 01c0 FFF7FEFF 	 bl LGG_SCP_transmit_data8
 157:../lgg/scp/scp.c **** 	LGG_SCP_transmit_data8(0x23); LGG_SCP_transmit_data8(0x27); LGG_SCP_transmit_data8(0x27);
 2323              	 .loc 1 157 0
 2324 01c4 2320     	 movs r0,#35
 2325 01c6 FFF7FEFF 	 bl LGG_SCP_transmit_data8
 2326 01ca 2720     	 movs r0,#39
 2327 01cc FFF7FEFF 	 bl LGG_SCP_transmit_data8
 2328 01d0 2720     	 movs r0,#39
 2329 01d2 FFF7FEFF 	 bl LGG_SCP_transmit_data8
 158:../lgg/scp/scp.c **** 	LGG_SCP_transmit_data8(0x25); LGG_SCP_transmit_data8(0x2D); LGG_SCP_transmit_data8(0x3B);
 2330              	 .loc 1 158 0
 2331 01d6 2520     	 movs r0,#37
 2332 01d8 FFF7FEFF 	 bl LGG_SCP_transmit_data8
 2333 01dc 2D20     	 movs r0,#45
 2334 01de FFF7FEFF 	 bl LGG_SCP_transmit_data8
 2335 01e2 3B20     	 movs r0,#59
 2336 01e4 FFF7FEFF 	 bl LGG_SCP_transmit_data8
 159:../lgg/scp/scp.c **** 	LGG_SCP_transmit_data8(0x00); LGG_SCP_transmit_data8(0x01); LGG_SCP_transmit_data8(0x04);
 2337              	 .loc 1 159 0
 2338 01e8 0020     	 movs r0,#0
 2339 01ea FFF7FEFF 	 bl LGG_SCP_transmit_data8
 2340 01ee 0120     	 movs r0,#1
 2341 01f0 FFF7FEFF 	 bl LGG_SCP_transmit_data8
 2342 01f4 0420     	 movs r0,#4
 2343 01f6 FFF7FEFF 	 bl LGG_SCP_transmit_data8
 160:../lgg/scp/scp.c **** 	LGG_SCP_transmit_data8(0x13);
 2344              	 .loc 1 160 0
 2345 01fa 1320     	 movs r0,#19
 2346 01fc FFF7FEFF 	 bl LGG_SCP_transmit_data8
 161:../lgg/scp/scp.c **** 
 162:../lgg/scp/scp.c **** 	LGG_SCP_transmit_cmd(0x3A);
 2347              	 .loc 1 162 0
 2348 0200 3A20     	 movs r0,#58
 2349 0202 FFF7FEFF 	 bl LGG_SCP_transmit_cmd
 163:../lgg/scp/scp.c **** 	LGG_SCP_transmit_data8(0x05);
 2350              	 .loc 1 163 0
 2351 0206 0520     	 movs r0,#5
 2352 0208 FFF7FEFF 	 bl LGG_SCP_transmit_data8
 164:../lgg/scp/scp.c **** 
 165:../lgg/scp/scp.c **** 	LGG_SCP_transmit_cmd(0x29);
 2353              	 .loc 1 165 0
 2354 020c 2920     	 movs r0,#41
 2355 020e FFF7FEFF 	 bl LGG_SCP_transmit_cmd
 166:../lgg/scp/scp.c **** }
 2356              	 .loc 1 166 0
 2357 0212 80BD     	 pop {r7,pc}
 2358              	.L17:
 2359              	 .align 2
 2360              	.L16:
 2361 0214 00800248 	 .word 1208123392
 2362              	 .cfi_endproc
 2363              	.LFE324:
 2365              	 .section .text.LGG_SCP_clear,"ax",%progbits
 2366              	 .align 2
 2367              	 .global LGG_SCP_clear
 2368              	 .thumb
 2369              	 .thumb_func
 2371              	LGG_SCP_clear:
 2372              	.LFB325:
 167:../lgg/scp/scp.c **** 
 168:../lgg/scp/scp.c **** /*
 169:../lgg/scp/scp.c ****  *  @ Brief: clear screen with specific color
 170:../lgg/scp/scp.c ****  *  @ param: color - your expect color filled with full screen
 171:../lgg/scp/scp.c ****  */
 172:../lgg/scp/scp.c **** void LGG_SCP_clear(uint16_t color)
 173:../lgg/scp/scp.c **** {
 2373              	 .loc 1 173 0
 2374              	 .cfi_startproc
 2375              	 
 2376              	 
 2377 0000 80B5     	 push {r7,lr}
 2378              	.LCFI28:
 2379              	 .cfi_def_cfa_offset 8
 2380              	 .cfi_offset 7,-8
 2381              	 .cfi_offset 14,-4
 2382 0002 84B0     	 sub sp,sp,#16
 2383              	.LCFI29:
 2384              	 .cfi_def_cfa_offset 24
 2385 0004 00AF     	 add r7,sp,#0
 2386              	.LCFI30:
 2387              	 .cfi_def_cfa_register 7
 2388 0006 0346     	 mov r3,r0
 2389 0008 FB80     	 strh r3,[r7,#6]
 174:../lgg/scp/scp.c **** 	uint16_t i, j;
 175:../lgg/scp/scp.c **** 	LGG_SCP_address_set(0, 0, LGG_SCP_PM_WIDTH - 1, LGG_SCP_PM_HEIGHT - 1);
 2390              	 .loc 1 175 0
 2391 000a 0020     	 movs r0,#0
 2392 000c 0021     	 movs r1,#0
 2393 000e 7F22     	 movs r2,#127
 2394 0010 9F23     	 movs r3,#159
 2395 0012 FFF7FEFF 	 bl LGG_SCP_address_set
 176:../lgg/scp/scp.c **** 	for(i=0; i<LGG_SCP_PM_WIDTH; i++)
 2396              	 .loc 1 176 0
 2397 0016 0023     	 movs r3,#0
 2398 0018 FB81     	 strh r3,[r7,#14]
 2399 001a 0FE0     	 b .L19
 2400              	.L22:
 177:../lgg/scp/scp.c **** 	{
 178:../lgg/scp/scp.c **** 		for(j=0; j<LGG_SCP_PM_HEIGHT; j++)
 2401              	 .loc 1 178 0
 2402 001c 0023     	 movs r3,#0
 2403 001e BB81     	 strh r3,[r7,#12]
 2404 0020 06E0     	 b .L20
 2405              	.L21:
 179:../lgg/scp/scp.c **** 		{
 180:../lgg/scp/scp.c **** 			LGG_SCP_transmit_data16(color);
 2406              	 .loc 1 180 0 discriminator 3
 2407 0022 FB88     	 ldrh r3,[r7,#6]
 2408 0024 1846     	 mov r0,r3
 2409 0026 FFF7FEFF 	 bl LGG_SCP_transmit_data16
 178:../lgg/scp/scp.c **** 		{
 2410              	 .loc 1 178 0 discriminator 3
 2411 002a BB89     	 ldrh r3,[r7,#12]
 2412 002c 0133     	 adds r3,r3,#1
 2413 002e BB81     	 strh r3,[r7,#12]
 2414              	.L20:
 178:../lgg/scp/scp.c **** 		{
 2415              	 .loc 1 178 0 is_stmt 0 discriminator 1
 2416 0030 BB89     	 ldrh r3,[r7,#12]
 2417 0032 9F2B     	 cmp r3,#159
 2418 0034 F5D9     	 bls .L21
 176:../lgg/scp/scp.c **** 	{
 2419              	 .loc 1 176 0 is_stmt 1 discriminator 2
 2420 0036 FB89     	 ldrh r3,[r7,#14]
 2421 0038 0133     	 adds r3,r3,#1
 2422 003a FB81     	 strh r3,[r7,#14]
 2423              	.L19:
 176:../lgg/scp/scp.c **** 	{
 2424              	 .loc 1 176 0 is_stmt 0 discriminator 1
 2425 003c FB89     	 ldrh r3,[r7,#14]
 2426 003e 7F2B     	 cmp r3,#127
 2427 0040 ECD9     	 bls .L22
 181:../lgg/scp/scp.c **** 		}
 182:../lgg/scp/scp.c **** 	}
 183:../lgg/scp/scp.c **** }
 2428              	 .loc 1 183 0 is_stmt 1
 2429 0042 1037     	 adds r7,r7,#16
 2430              	.LCFI31:
 2431              	 .cfi_def_cfa_offset 8
 2432 0044 BD46     	 mov sp,r7
 2433              	.LCFI32:
 2434              	 .cfi_def_cfa_register 13
 2435              	 
 2436 0046 80BD     	 pop {r7,pc}
 2437              	 .cfi_endproc
 2438              	.LFE325:
 2440              	 .section .text.LGG_SCP_fill_region,"ax",%progbits
 2441              	 .align 2
 2442              	 .global LGG_SCP_fill_region
 2443              	 .thumb
 2444              	 .thumb_func
 2446              	LGG_SCP_fill_region:
 2447              	.LFB326:
 184:../lgg/scp/scp.c **** 
 185:../lgg/scp/scp.c **** /*
 186:../lgg/scp/scp.c ****  *  @ Brief:  fill specific region with specific color
 187:../lgg/scp/scp.c ****  *  @ param:  x1, y1, x2, y2 - boarder coordinates
 188:../lgg/scp/scp.c ****  *  		  color - your specific color
 189:../lgg/scp/scp.c ****  */
 190:../lgg/scp/scp.c **** void LGG_SCP_fill_region(uint16_t x1, uint16_t y1, uint16_t x2, uint16_t y2,uint16_t color)
 191:../lgg/scp/scp.c **** {
 2448              	 .loc 1 191 0
 2449              	 .cfi_startproc
 2450              	 
 2451              	 
 2452 0000 90B5     	 push {r4,r7,lr}
 2453              	.LCFI33:
 2454              	 .cfi_def_cfa_offset 12
 2455              	 .cfi_offset 4,-12
 2456              	 .cfi_offset 7,-8
 2457              	 .cfi_offset 14,-4
 2458 0002 85B0     	 sub sp,sp,#20
 2459              	.LCFI34:
 2460              	 .cfi_def_cfa_offset 32
 2461 0004 00AF     	 add r7,sp,#0
 2462              	.LCFI35:
 2463              	 .cfi_def_cfa_register 7
 2464 0006 0446     	 mov r4,r0
 2465 0008 0846     	 mov r0,r1
 2466 000a 1146     	 mov r1,r2
 2467 000c 1A46     	 mov r2,r3
 2468 000e 2346     	 mov r3,r4
 2469 0010 FB80     	 strh r3,[r7,#6]
 2470 0012 0346     	 mov r3,r0
 2471 0014 BB80     	 strh r3,[r7,#4]
 2472 0016 0B46     	 mov r3,r1
 2473 0018 7B80     	 strh r3,[r7,#2]
 2474 001a 1346     	 mov r3,r2
 2475 001c 3B80     	 strh r3,[r7]
 192:../lgg/scp/scp.c **** 	uint16_t i, j;
 193:../lgg/scp/scp.c **** 	LGG_SCP_address_set(x1, y1, x2, y2);
 2476              	 .loc 1 193 0
 2477 001e FB88     	 ldrh r3,[r7,#6]
 2478 0020 D8B2     	 uxtb r0,r3
 2479 0022 BB88     	 ldrh r3,[r7,#4]
 2480 0024 D9B2     	 uxtb r1,r3
 2481 0026 7B88     	 ldrh r3,[r7,#2]
 2482 0028 DAB2     	 uxtb r2,r3
 2483 002a 3B88     	 ldrh r3,[r7]
 2484 002c DBB2     	 uxtb r3,r3
 2485 002e FFF7FEFF 	 bl LGG_SCP_address_set
 194:../lgg/scp/scp.c **** 	for(i=y1; i<y2+1;i++)
 2486              	 .loc 1 194 0
 2487 0032 BB88     	 ldrh r3,[r7,#4]
 2488 0034 FB81     	 strh r3,[r7,#14]
 2489 0036 11E0     	 b .L24
 2490              	.L27:
 195:../lgg/scp/scp.c **** 	{
 196:../lgg/scp/scp.c **** 		for(j=x1; j<x2+1; j++)
 2491              	 .loc 1 196 0
 2492 0038 FB88     	 ldrh r3,[r7,#6]
 2493 003a BB81     	 strh r3,[r7,#12]
 2494 003c 06E0     	 b .L25
 2495              	.L26:
 197:../lgg/scp/scp.c **** 		{
 198:../lgg/scp/scp.c **** 			LGG_SCP_transmit_data16(color);
 2496              	 .loc 1 198 0 discriminator 3
 2497 003e 3B8C     	 ldrh r3,[r7,#32]
 2498 0040 1846     	 mov r0,r3
 2499 0042 FFF7FEFF 	 bl LGG_SCP_transmit_data16
 196:../lgg/scp/scp.c **** 		{
 2500              	 .loc 1 196 0 discriminator 3
 2501 0046 BB89     	 ldrh r3,[r7,#12]
 2502 0048 0133     	 adds r3,r3,#1
 2503 004a BB81     	 strh r3,[r7,#12]
 2504              	.L25:
 196:../lgg/scp/scp.c **** 		{
 2505              	 .loc 1 196 0 is_stmt 0 discriminator 1
 2506 004c BA89     	 ldrh r2,[r7,#12]
 2507 004e 7B88     	 ldrh r3,[r7,#2]
 2508 0050 0133     	 adds r3,r3,#1
 2509 0052 9A42     	 cmp r2,r3
 2510 0054 F3DB     	 blt .L26
 194:../lgg/scp/scp.c **** 	{
 2511              	 .loc 1 194 0 is_stmt 1 discriminator 2
 2512 0056 FB89     	 ldrh r3,[r7,#14]
 2513 0058 0133     	 adds r3,r3,#1
 2514 005a FB81     	 strh r3,[r7,#14]
 2515              	.L24:
 194:../lgg/scp/scp.c **** 	{
 2516              	 .loc 1 194 0 is_stmt 0 discriminator 1
 2517 005c FA89     	 ldrh r2,[r7,#14]
 2518 005e 3B88     	 ldrh r3,[r7]
 2519 0060 0133     	 adds r3,r3,#1
 2520 0062 9A42     	 cmp r2,r3
 2521 0064 E8DB     	 blt .L27
 199:../lgg/scp/scp.c **** 		}
 200:../lgg/scp/scp.c **** 	}
 201:../lgg/scp/scp.c **** }
 2522              	 .loc 1 201 0 is_stmt 1
 2523 0066 1437     	 adds r7,r7,#20
 2524              	.LCFI36:
 2525              	 .cfi_def_cfa_offset 12
 2526 0068 BD46     	 mov sp,r7
 2527              	.LCFI37:
 2528              	 .cfi_def_cfa_register 13
 2529              	 
 2530 006a 90BD     	 pop {r4,r7,pc}
 2531              	 .cfi_endproc
 2532              	.LFE326:
 2534              	 .section .text.LGG_SCP_display_char,"ax",%progbits
 2535              	 .align 2
 2536              	 .global LGG_SCP_display_char
 2537              	 .thumb
 2538              	 .thumb_func
 2540              	LGG_SCP_display_char:
 2541              	.LFB327:
 202:../lgg/scp/scp.c **** 
 203:../lgg/scp/scp.c **** /*
 204:../lgg/scp/scp.c ****  *  @ Brief:  show a character on screen
 205:../lgg/scp/scp.c ****  *  @ param:  X, Y - character coordinate
 206:../lgg/scp/scp.c ****  *  		  mode - LGG_SCP_CHARMODE_NOOVERLYING(no overlying)
 207:../lgg/scp/scp.c ****  *  		  		 LGG_SCP_CHARMODE_OVERLYING  (overlying on current content)
 208:../lgg/scp/scp.c ****  *  		  font_color - font color
 209:../lgg/scp/scp.c ****  *  		  bkg_color - background color
 210:../lgg/scp/scp.c ****  */
 211:../lgg/scp/scp.c **** void LGG_SCP_display_char(uint16_t X, uint16_t Y, uint8_t ascii, uint8_t mode, uint16_t font_color,
 212:../lgg/scp/scp.c **** {
 2542              	 .loc 1 212 0
 2543              	 .cfi_startproc
 2544              	 
 2545              	 
 2546 0000 90B5     	 push {r4,r7,lr}
 2547              	.LCFI38:
 2548              	 .cfi_def_cfa_offset 12
 2549              	 .cfi_offset 4,-12
 2550              	 .cfi_offset 7,-8
 2551              	 .cfi_offset 14,-4
 2552 0002 85B0     	 sub sp,sp,#20
 2553              	.LCFI39:
 2554              	 .cfi_def_cfa_offset 32
 2555 0004 00AF     	 add r7,sp,#0
 2556              	.LCFI40:
 2557              	 .cfi_def_cfa_register 7
 2558 0006 0446     	 mov r4,r0
 2559 0008 0846     	 mov r0,r1
 2560 000a 1146     	 mov r1,r2
 2561 000c 1A46     	 mov r2,r3
 2562 000e 2346     	 mov r3,r4
 2563 0010 FB80     	 strh r3,[r7,#6]
 2564 0012 0346     	 mov r3,r0
 2565 0014 BB80     	 strh r3,[r7,#4]
 2566 0016 0B46     	 mov r3,r1
 2567 0018 FB70     	 strb r3,[r7,#3]
 2568 001a 1346     	 mov r3,r2
 2569 001c BB70     	 strb r3,[r7,#2]
 213:../lgg/scp/scp.c **** 	uint8_t i, j, font;
 214:../lgg/scp/scp.c **** 	uint8_t offset = ascii - ' ';
 2570              	 .loc 1 214 0
 2571 001e FB78     	 ldrb r3,[r7,#3]
 2572 0020 203B     	 subs r3,r3,#32
 2573 0022 3B73     	 strb r3,[r7,#12]
 215:../lgg/scp/scp.c **** 	if(X>LGG_SCP_PM_WIDTH - 16 || Y > LGG_SCP_PM_HEIGHT)
 2574              	 .loc 1 215 0
 2575 0024 FB88     	 ldrh r3,[r7,#6]
 2576 0026 702B     	 cmp r3,#112
 2577 0028 02D8     	 bhi .L29
 2578              	 .loc 1 215 0 is_stmt 0 discriminator 1
 2579 002a BB88     	 ldrh r3,[r7,#4]
 2580 002c A02B     	 cmp r3,#160
 2581 002e 00D9     	 bls .L30
 2582              	.L29:
 216:../lgg/scp/scp.c **** 		return ;
 2583              	 .loc 1 216 0 is_stmt 1
 2584 0030 6FE0     	 b .L28
 2585              	.L30:
 217:../lgg/scp/scp.c **** 	LGG_SCP_address_set(X, Y, X+7, Y+15);
 2586              	 .loc 1 217 0
 2587 0032 FB88     	 ldrh r3,[r7,#6]
 2588 0034 D8B2     	 uxtb r0,r3
 2589 0036 BB88     	 ldrh r3,[r7,#4]
 2590 0038 D9B2     	 uxtb r1,r3
 2591 003a FB88     	 ldrh r3,[r7,#6]
 2592 003c DBB2     	 uxtb r3,r3
 2593 003e 0733     	 adds r3,r3,#7
 2594 0040 DAB2     	 uxtb r2,r3
 2595 0042 BB88     	 ldrh r3,[r7,#4]
 2596 0044 DBB2     	 uxtb r3,r3
 2597 0046 0F33     	 adds r3,r3,#15
 2598 0048 DBB2     	 uxtb r3,r3
 2599 004a FFF7FEFF 	 bl LGG_SCP_address_set
 218:../lgg/scp/scp.c **** 	if(mode == LGG_SCP_CHARMODE_NOOVERLYING)
 2600              	 .loc 1 218 0
 2601 004e BB78     	 ldrb r3,[r7,#2]
 2602 0050 012B     	 cmp r3,#1
 2603 0052 2AD1     	 bne .L32
 219:../lgg/scp/scp.c **** 	{
 220:../lgg/scp/scp.c **** 		for(i=0; i<16; i++)
 2604              	 .loc 1 220 0
 2605 0054 0023     	 movs r3,#0
 2606 0056 FB73     	 strb r3,[r7,#15]
 2607 0058 23E0     	 b .L33
 2608              	.L38:
 221:../lgg/scp/scp.c **** 		{
 222:../lgg/scp/scp.c **** 			font = ascii_1608[(uint16_t)offset * 16 + i];
 2609              	 .loc 1 222 0
 2610 005a 3B7B     	 ldrb r3,[r7,#12]
 2611 005c 1A01     	 lsls r2,r3,#4
 2612 005e FB7B     	 ldrb r3,[r7,#15]
 2613 0060 1344     	 add r3,r3,r2
 2614 0062 2D4A     	 ldr r2,.L44
 2615 0064 D35C     	 ldrb r3,[r2,r3]
 2616 0066 7B73     	 strb r3,[r7,#13]
 223:../lgg/scp/scp.c **** 			for(j=0; j<8; j++)
 2617              	 .loc 1 223 0
 2618 0068 0023     	 movs r3,#0
 2619 006a BB73     	 strb r3,[r7,#14]
 2620 006c 13E0     	 b .L34
 2621              	.L37:
 224:../lgg/scp/scp.c **** 			{
 225:../lgg/scp/scp.c **** 				if(font & 0x01)
 2622              	 .loc 1 225 0
 2623 006e 7B7B     	 ldrb r3,[r7,#13]
 2624 0070 03F00103 	 and r3,r3,#1
 2625 0074 002B     	 cmp r3,#0
 2626 0076 04D0     	 beq .L35
 226:../lgg/scp/scp.c **** 					LGG_SCP_transmit_data16(font_color);
 2627              	 .loc 1 226 0
 2628 0078 3B8C     	 ldrh r3,[r7,#32]
 2629 007a 1846     	 mov r0,r3
 2630 007c FFF7FEFF 	 bl LGG_SCP_transmit_data16
 2631 0080 03E0     	 b .L36
 2632              	.L35:
 227:../lgg/scp/scp.c **** 				else
 228:../lgg/scp/scp.c **** 					LGG_SCP_transmit_data16(bkg_color);
 2633              	 .loc 1 228 0
 2634 0082 BB8C     	 ldrh r3,[r7,#36]
 2635 0084 1846     	 mov r0,r3
 2636 0086 FFF7FEFF 	 bl LGG_SCP_transmit_data16
 2637              	.L36:
 229:../lgg/scp/scp.c **** 				font >>= 1;
 2638              	 .loc 1 229 0 discriminator 2
 2639 008a 7B7B     	 ldrb r3,[r7,#13]
 2640 008c 5B08     	 lsrs r3,r3,#1
 2641 008e 7B73     	 strb r3,[r7,#13]
 223:../lgg/scp/scp.c **** 			{
 2642              	 .loc 1 223 0 discriminator 2
 2643 0090 BB7B     	 ldrb r3,[r7,#14]
 2644 0092 0133     	 adds r3,r3,#1
 2645 0094 BB73     	 strb r3,[r7,#14]
 2646              	.L34:
 223:../lgg/scp/scp.c **** 			{
 2647              	 .loc 1 223 0 is_stmt 0 discriminator 1
 2648 0096 BB7B     	 ldrb r3,[r7,#14]
 2649 0098 072B     	 cmp r3,#7
 2650 009a E8D9     	 bls .L37
 220:../lgg/scp/scp.c **** 		{
 2651              	 .loc 1 220 0 is_stmt 1 discriminator 2
 2652 009c FB7B     	 ldrb r3,[r7,#15]
 2653 009e 0133     	 adds r3,r3,#1
 2654 00a0 FB73     	 strb r3,[r7,#15]
 2655              	.L33:
 220:../lgg/scp/scp.c **** 		{
 2656              	 .loc 1 220 0 is_stmt 0 discriminator 1
 2657 00a2 FB7B     	 ldrb r3,[r7,#15]
 2658 00a4 0F2B     	 cmp r3,#15
 2659 00a6 D8D9     	 bls .L38
 2660 00a8 33E0     	 b .L28
 2661              	.L32:
 230:../lgg/scp/scp.c **** 			}
 231:../lgg/scp/scp.c **** 		}
 232:../lgg/scp/scp.c **** 	}
 233:../lgg/scp/scp.c **** 	else if(mode == LGG_SCP_CHARMODE_OVERLYING)
 2662              	 .loc 1 233 0 is_stmt 1
 2663 00aa BB78     	 ldrb r3,[r7,#2]
 2664 00ac 002B     	 cmp r3,#0
 2665 00ae 30D1     	 bne .L28
 234:../lgg/scp/scp.c **** 	{
 235:../lgg/scp/scp.c **** 		for(i=0; i<16; i++)
 2666              	 .loc 1 235 0
 2667 00b0 0023     	 movs r3,#0
 2668 00b2 FB73     	 strb r3,[r7,#15]
 2669 00b4 2AE0     	 b .L39
 2670              	.L43:
 236:../lgg/scp/scp.c **** 		{
 237:../lgg/scp/scp.c **** 			font = ascii_1608[(uint16_t)offset * 16 + i];
 2671              	 .loc 1 237 0
 2672 00b6 3B7B     	 ldrb r3,[r7,#12]
 2673 00b8 1A01     	 lsls r2,r3,#4
 2674 00ba FB7B     	 ldrb r3,[r7,#15]
 2675 00bc 1344     	 add r3,r3,r2
 2676 00be 164A     	 ldr r2,.L44
 2677 00c0 D35C     	 ldrb r3,[r2,r3]
 2678 00c2 7B73     	 strb r3,[r7,#13]
 238:../lgg/scp/scp.c **** 			for(j=0; j<8; j++)
 2679              	 .loc 1 238 0
 2680 00c4 0023     	 movs r3,#0
 2681 00c6 BB73     	 strb r3,[r7,#14]
 2682 00c8 1AE0     	 b .L40
 2683              	.L42:
 239:../lgg/scp/scp.c **** 			{
 240:../lgg/scp/scp.c **** 				if(font & 0x01)
 2684              	 .loc 1 240 0
 2685 00ca 7B7B     	 ldrb r3,[r7,#13]
 2686 00cc 03F00103 	 and r3,r3,#1
 2687 00d0 002B     	 cmp r3,#0
 2688 00d2 0FD0     	 beq .L41
 241:../lgg/scp/scp.c **** 					LGG_SCP_draw_point(X + j, Y + i, font_color);
 2689              	 .loc 1 241 0
 2690 00d4 BB7B     	 ldrb r3,[r7,#14]
 2691 00d6 9AB2     	 uxth r2,r3
 2692 00d8 FB88     	 ldrh r3,[r7,#6]
 2693 00da 1344     	 add r3,r3,r2
 2694 00dc 99B2     	 uxth r1,r3
 2695 00de FB7B     	 ldrb r3,[r7,#15]
 2696 00e0 9AB2     	 uxth r2,r3
 2697 00e2 BB88     	 ldrh r3,[r7,#4]
 2698 00e4 1344     	 add r3,r3,r2
 2699 00e6 9AB2     	 uxth r2,r3
 2700 00e8 3B8C     	 ldrh r3,[r7,#32]
 2701 00ea 0846     	 mov r0,r1
 2702 00ec 1146     	 mov r1,r2
 2703 00ee 1A46     	 mov r2,r3
 2704 00f0 FFF7FEFF 	 bl LGG_SCP_draw_point
 2705              	.L41:
 242:../lgg/scp/scp.c **** 				font >>= 1;
 2706              	 .loc 1 242 0 discriminator 2
 2707 00f4 7B7B     	 ldrb r3,[r7,#13]
 2708 00f6 5B08     	 lsrs r3,r3,#1
 2709 00f8 7B73     	 strb r3,[r7,#13]
 238:../lgg/scp/scp.c **** 			{
 2710              	 .loc 1 238 0 discriminator 2
 2711 00fa BB7B     	 ldrb r3,[r7,#14]
 2712 00fc 0133     	 adds r3,r3,#1
 2713 00fe BB73     	 strb r3,[r7,#14]
 2714              	.L40:
 238:../lgg/scp/scp.c **** 			{
 2715              	 .loc 1 238 0 is_stmt 0 discriminator 1
 2716 0100 BB7B     	 ldrb r3,[r7,#14]
 2717 0102 072B     	 cmp r3,#7
 2718 0104 E1D9     	 bls .L42
 235:../lgg/scp/scp.c **** 		{
 2719              	 .loc 1 235 0 is_stmt 1 discriminator 2
 2720 0106 FB7B     	 ldrb r3,[r7,#15]
 2721 0108 0133     	 adds r3,r3,#1
 2722 010a FB73     	 strb r3,[r7,#15]
 2723              	.L39:
 235:../lgg/scp/scp.c **** 		{
 2724              	 .loc 1 235 0 is_stmt 0 discriminator 1
 2725 010c FB7B     	 ldrb r3,[r7,#15]
 2726 010e 0F2B     	 cmp r3,#15
 2727 0110 D1D9     	 bls .L43
 2728              	.L28:
 243:../lgg/scp/scp.c **** 			}
 244:../lgg/scp/scp.c **** 		}
 245:../lgg/scp/scp.c **** 	}
 246:../lgg/scp/scp.c **** }
 2729              	 .loc 1 246 0 is_stmt 1
 2730 0112 1437     	 adds r7,r7,#20
 2731              	.LCFI41:
 2732              	 .cfi_def_cfa_offset 12
 2733 0114 BD46     	 mov sp,r7
 2734              	.LCFI42:
 2735              	 .cfi_def_cfa_register 13
 2736              	 
 2737 0116 90BD     	 pop {r4,r7,pc}
 2738              	.L45:
 2739              	 .align 2
 2740              	.L44:
 2741 0118 00000000 	 .word ascii_1608
 2742              	 .cfi_endproc
 2743              	.LFE327:
 2745              	 .section .text.LGG_SCP_display_string,"ax",%progbits
 2746              	 .align 2
 2747              	 .global LGG_SCP_display_string
 2748              	 .thumb
 2749              	 .thumb_func
 2751              	LGG_SCP_display_string:
 2752              	.LFB328:
 247:../lgg/scp/scp.c **** 
 248:../lgg/scp/scp.c **** /*
 249:../lgg/scp/scp.c ****  *  @ Brief:  show string on screen
 250:../lgg/scp/scp.c ****  *  @ param:  X, Y - start position
 251:../lgg/scp/scp.c ****  *  		  mode - LGG_SCP_CHARMODE_NOOVERLYING(no overlying)
 252:../lgg/scp/scp.c ****  *  		  		 LGG_SCP_CHARMODE_OVERLYING  (overlying on current content)
 253:../lgg/scp/scp.c ****  *  		  font_color - font color
 254:../lgg/scp/scp.c ****  *  		  bkg_color - background color
 255:../lgg/scp/scp.c ****  */
 256:../lgg/scp/scp.c **** void LGG_SCP_display_string(uint16_t X, uint16_t Y, uint8_t* string, uint8_t mode, uint16_t font_co
 257:../lgg/scp/scp.c **** {
 2753              	 .loc 1 257 0
 2754              	 .cfi_startproc
 2755              	 
 2756              	 
 2757 0000 90B5     	 push {r4,r7,lr}
 2758              	.LCFI43:
 2759              	 .cfi_def_cfa_offset 12
 2760              	 .cfi_offset 4,-12
 2761              	 .cfi_offset 7,-8
 2762              	 .cfi_offset 14,-4
 2763 0002 89B0     	 sub sp,sp,#36
 2764              	.LCFI44:
 2765              	 .cfi_def_cfa_offset 48
 2766 0004 02AF     	 add r7,sp,#8
 2767              	.LCFI45:
 2768              	 .cfi_def_cfa 7,40
 2769 0006 BA60     	 str r2,[r7,#8]
 2770 0008 1A46     	 mov r2,r3
 2771 000a 0346     	 mov r3,r0
 2772 000c FB81     	 strh r3,[r7,#14]
 2773 000e 0B46     	 mov r3,r1
 2774 0010 BB81     	 strh r3,[r7,#12]
 2775 0012 1346     	 mov r3,r2
 2776 0014 FB71     	 strb r3,[r7,#7]
 258:../lgg/scp/scp.c **** 	uint16_t p_x = X, p_y = Y;
 2777              	 .loc 1 258 0
 2778 0016 FB89     	 ldrh r3,[r7,#14]
 2779 0018 FB82     	 strh r3,[r7,#22]
 2780 001a BB89     	 ldrh r3,[r7,#12]
 2781 001c BB82     	 strh r3,[r7,#20]
 259:../lgg/scp/scp.c **** 	uint8_t* p_string = string;
 2782              	 .loc 1 259 0
 2783 001e BB68     	 ldr r3,[r7,#8]
 2784 0020 3B61     	 str r3,[r7,#16]
 260:../lgg/scp/scp.c **** 
 261:../lgg/scp/scp.c **** 	while(*p_string != '\0')
 2785              	 .loc 1 261 0
 2786 0022 24E0     	 b .L47
 2787              	.L50:
 262:../lgg/scp/scp.c **** 	{
 263:../lgg/scp/scp.c **** 		if(p_x > LGG_SCP_PM_WIDTH - 16)
 2788              	 .loc 1 263 0
 2789 0024 FB8A     	 ldrh r3,[r7,#22]
 2790 0026 702B     	 cmp r3,#112
 2791 0028 04D9     	 bls .L48
 264:../lgg/scp/scp.c **** 		{
 265:../lgg/scp/scp.c **** 			p_x  = 0;
 2792              	 .loc 1 265 0
 2793 002a 0023     	 movs r3,#0
 2794 002c FB82     	 strh r3,[r7,#22]
 266:../lgg/scp/scp.c **** 			p_y += 16;
 2795              	 .loc 1 266 0
 2796 002e BB8A     	 ldrh r3,[r7,#20]
 2797 0030 1033     	 adds r3,r3,#16
 2798 0032 BB82     	 strh r3,[r7,#20]
 2799              	.L48:
 267:../lgg/scp/scp.c **** 		}
 268:../lgg/scp/scp.c **** 		if(p_y > LGG_SCP_PM_HEIGHT - 16)
 2800              	 .loc 1 268 0
 2801 0034 BB8A     	 ldrh r3,[r7,#20]
 2802 0036 902B     	 cmp r3,#144
 2803 0038 07D9     	 bls .L49
 269:../lgg/scp/scp.c **** 		{
 270:../lgg/scp/scp.c **** 			p_x = 0;
 2804              	 .loc 1 270 0
 2805 003a 0023     	 movs r3,#0
 2806 003c FB82     	 strh r3,[r7,#22]
 271:../lgg/scp/scp.c **** 			p_y = 0;
 2807              	 .loc 1 271 0
 2808 003e 0023     	 movs r3,#0
 2809 0040 BB82     	 strh r3,[r7,#20]
 272:../lgg/scp/scp.c **** 			LGG_SCP_clear(bkg_color);
 2810              	 .loc 1 272 0
 2811 0042 BB8D     	 ldrh r3,[r7,#44]
 2812 0044 1846     	 mov r0,r3
 2813 0046 FFF7FEFF 	 bl LGG_SCP_clear
 2814              	.L49:
 273:../lgg/scp/scp.c **** 		}
 274:../lgg/scp/scp.c **** 		LGG_SCP_display_char(p_x, p_y, *p_string, mode, font_color, bkg_color);
 2815              	 .loc 1 274 0
 2816 004a 3B69     	 ldr r3,[r7,#16]
 2817 004c 1A78     	 ldrb r2,[r3]
 2818 004e F88A     	 ldrh r0,[r7,#22]
 2819 0050 B98A     	 ldrh r1,[r7,#20]
 2820 0052 FC79     	 ldrb r4,[r7,#7]
 2821 0054 3B8D     	 ldrh r3,[r7,#40]
 2822 0056 0093     	 str r3,[sp]
 2823 0058 BB8D     	 ldrh r3,[r7,#44]
 2824 005a 0193     	 str r3,[sp,#4]
 2825 005c 2346     	 mov r3,r4
 2826 005e FFF7FEFF 	 bl LGG_SCP_display_char
 275:../lgg/scp/scp.c **** 		p_x += 8;
 2827              	 .loc 1 275 0
 2828 0062 FB8A     	 ldrh r3,[r7,#22]
 2829 0064 0833     	 adds r3,r3,#8
 2830 0066 FB82     	 strh r3,[r7,#22]
 276:../lgg/scp/scp.c **** 		p_string ++;
 2831              	 .loc 1 276 0
 2832 0068 3B69     	 ldr r3,[r7,#16]
 2833 006a 0133     	 adds r3,r3,#1
 2834 006c 3B61     	 str r3,[r7,#16]
 2835              	.L47:
 261:../lgg/scp/scp.c **** 	{
 2836              	 .loc 1 261 0
 2837 006e 3B69     	 ldr r3,[r7,#16]
 2838 0070 1B78     	 ldrb r3,[r3]
 2839 0072 002B     	 cmp r3,#0
 2840 0074 D6D1     	 bne .L50
 277:../lgg/scp/scp.c **** 	}
 278:../lgg/scp/scp.c **** }
 2841              	 .loc 1 278 0
 2842 0076 1C37     	 adds r7,r7,#28
 2843              	.LCFI46:
 2844              	 .cfi_def_cfa_offset 12
 2845 0078 BD46     	 mov sp,r7
 2846              	.LCFI47:
 2847              	 .cfi_def_cfa_register 13
 2848              	 
 2849 007a 90BD     	 pop {r4,r7,pc}
 2850              	 .cfi_endproc
 2851              	.LFE328:
 2853              	 .section .text.LGG_SCP_display_chinese,"ax",%progbits
 2854              	 .align 2
 2855              	 .global LGG_SCP_display_chinese
 2856              	 .thumb
 2857              	 .thumb_func
 2859              	LGG_SCP_display_chinese:
 2860              	.LFB329:
 279:../lgg/scp/scp.c **** 
 280:../lgg/scp/scp.c **** /*
 281:../lgg/scp/scp.c ****  *   Tips: Use "sprintf" function to show digits
 282:../lgg/scp/scp.c ****  *   (I have try it on my GCC Compiler)
 283:../lgg/scp/scp.c ****  *   use NewLib-Standard to support FLOAT
 284:../lgg/scp/scp.c ****  * */
 285:../lgg/scp/scp.c **** 
 286:../lgg/scp/scp.c **** /*
 287:../lgg/scp/scp.c ****  *  @ Brief:   display Chinese character on screen
 288:../lgg/scp/scp.c ****  *  @ param:  X, Y - start position
 289:../lgg/scp/scp.c ****  *            index - Chinese character index in FONT table
 290:../lgg/scp/scp.c ****  *  		  font_color - font color
 291:../lgg/scp/scp.c ****  *  		  bkg_color - background color
 292:../lgg/scp/scp.c ****  */
 293:../lgg/scp/scp.c **** void LGG_SCP_display_chinese(uint16_t X, uint16_t Y, uint8_t index, uint16_t font_color, uint16_t b
 294:../lgg/scp/scp.c **** {
 2861              	 .loc 1 294 0
 2862              	 .cfi_startproc
 2863              	 
 2864              	 
 2865 0000 90B5     	 push {r4,r7,lr}
 2866              	.LCFI48:
 2867              	 .cfi_def_cfa_offset 12
 2868              	 .cfi_offset 4,-12
 2869              	 .cfi_offset 7,-8
 2870              	 .cfi_offset 14,-4
 2871 0002 85B0     	 sub sp,sp,#20
 2872              	.LCFI49:
 2873              	 .cfi_def_cfa_offset 32
 2874 0004 00AF     	 add r7,sp,#0
 2875              	.LCFI50:
 2876              	 .cfi_def_cfa_register 7
 2877 0006 0446     	 mov r4,r0
 2878 0008 0846     	 mov r0,r1
 2879 000a 1146     	 mov r1,r2
 2880 000c 1A46     	 mov r2,r3
 2881 000e 2346     	 mov r3,r4
 2882 0010 FB80     	 strh r3,[r7,#6]
 2883 0012 0346     	 mov r3,r0
 2884 0014 BB80     	 strh r3,[r7,#4]
 2885 0016 0B46     	 mov r3,r1
 2886 0018 FB70     	 strb r3,[r7,#3]
 2887 001a 1346     	 mov r3,r2
 2888 001c 3B80     	 strh r3,[r7]
 295:../lgg/scp/scp.c **** 	uint8_t i = 0, j = 0;
 2889              	 .loc 1 295 0
 2890 001e 0023     	 movs r3,#0
 2891 0020 FB73     	 strb r3,[r7,#15]
 2892 0022 0023     	 movs r3,#0
 2893 0024 BB73     	 strb r3,[r7,#14]
 296:../lgg/scp/scp.c **** 	uint16_t font = 0;
 2894              	 .loc 1 296 0
 2895 0026 0023     	 movs r3,#0
 2896 0028 BB81     	 strh r3,[r7,#12]
 297:../lgg/scp/scp.c **** 
 298:../lgg/scp/scp.c **** 	LGG_SCP_address_set(X, Y, X+15, Y+15);
 2897              	 .loc 1 298 0
 2898 002a FB88     	 ldrh r3,[r7,#6]
 2899 002c D8B2     	 uxtb r0,r3
 2900 002e BB88     	 ldrh r3,[r7,#4]
 2901 0030 D9B2     	 uxtb r1,r3
 2902 0032 FB88     	 ldrh r3,[r7,#6]
 2903 0034 DBB2     	 uxtb r3,r3
 2904 0036 0F33     	 adds r3,r3,#15
 2905 0038 DAB2     	 uxtb r2,r3
 2906 003a BB88     	 ldrh r3,[r7,#4]
 2907 003c DBB2     	 uxtb r3,r3
 2908 003e 0F33     	 adds r3,r3,#15
 2909 0040 DBB2     	 uxtb r3,r3
 2910 0042 FFF7FEFF 	 bl LGG_SCP_address_set
 299:../lgg/scp/scp.c **** 	/* function to show chinese */
 300:../lgg/scp/scp.c **** 	for(i=0; i<16; i++)
 2911              	 .loc 1 300 0
 2912 0046 0023     	 movs r3,#0
 2913 0048 FB73     	 strb r3,[r7,#15]
 2914 004a 25E0     	 b .L52
 2915              	.L57:
 301:../lgg/scp/scp.c **** 	{
 302:../lgg/scp/scp.c **** 		font = ((uint16_t*)chinese)[(uint16_t)index * 16 + i];
 2916              	 .loc 1 302 0
 2917 004c FB78     	 ldrb r3,[r7,#3]
 2918 004e 1A01     	 lsls r2,r3,#4
 2919 0050 FB7B     	 ldrb r3,[r7,#15]
 2920 0052 1344     	 add r3,r3,r2
 2921 0054 5B00     	 lsls r3,r3,#1
 2922 0056 134A     	 ldr r2,.L58
 2923 0058 1344     	 add r3,r3,r2
 2924 005a 1B88     	 ldrh r3,[r3]
 2925 005c BB81     	 strh r3,[r7,#12]
 303:../lgg/scp/scp.c **** 		for(j=0; j<16; j++)
 2926              	 .loc 1 303 0
 2927 005e 0023     	 movs r3,#0
 2928 0060 BB73     	 strb r3,[r7,#14]
 2929 0062 13E0     	 b .L53
 2930              	.L56:
 304:../lgg/scp/scp.c **** 		{
 305:../lgg/scp/scp.c **** 			if(font & 0x0001)
 2931              	 .loc 1 305 0
 2932 0064 BB89     	 ldrh r3,[r7,#12]
 2933 0066 03F00103 	 and r3,r3,#1
 2934 006a 002B     	 cmp r3,#0
 2935 006c 04D0     	 beq .L54
 306:../lgg/scp/scp.c **** 				LGG_SCP_transmit_data16(font_color);
 2936              	 .loc 1 306 0
 2937 006e 3B88     	 ldrh r3,[r7]
 2938 0070 1846     	 mov r0,r3
 2939 0072 FFF7FEFF 	 bl LGG_SCP_transmit_data16
 2940 0076 03E0     	 b .L55
 2941              	.L54:
 307:../lgg/scp/scp.c **** 			else
 308:../lgg/scp/scp.c **** 				LGG_SCP_transmit_data16(bkg_color);
 2942              	 .loc 1 308 0
 2943 0078 3B8C     	 ldrh r3,[r7,#32]
 2944 007a 1846     	 mov r0,r3
 2945 007c FFF7FEFF 	 bl LGG_SCP_transmit_data16
 2946              	.L55:
 309:../lgg/scp/scp.c **** 			font >>= 1;
 2947              	 .loc 1 309 0 discriminator 2
 2948 0080 BB89     	 ldrh r3,[r7,#12]
 2949 0082 5B08     	 lsrs r3,r3,#1
 2950 0084 BB81     	 strh r3,[r7,#12]
 303:../lgg/scp/scp.c **** 		{
 2951              	 .loc 1 303 0 discriminator 2
 2952 0086 BB7B     	 ldrb r3,[r7,#14]
 2953 0088 0133     	 adds r3,r3,#1
 2954 008a BB73     	 strb r3,[r7,#14]
 2955              	.L53:
 303:../lgg/scp/scp.c **** 		{
 2956              	 .loc 1 303 0 is_stmt 0 discriminator 1
 2957 008c BB7B     	 ldrb r3,[r7,#14]
 2958 008e 0F2B     	 cmp r3,#15
 2959 0090 E8D9     	 bls .L56
 300:../lgg/scp/scp.c **** 	{
 2960              	 .loc 1 300 0 is_stmt 1 discriminator 2
 2961 0092 FB7B     	 ldrb r3,[r7,#15]
 2962 0094 0133     	 adds r3,r3,#1
 2963 0096 FB73     	 strb r3,[r7,#15]
 2964              	.L52:
 300:../lgg/scp/scp.c **** 	{
 2965              	 .loc 1 300 0 is_stmt 0 discriminator 1
 2966 0098 FB7B     	 ldrb r3,[r7,#15]
 2967 009a 0F2B     	 cmp r3,#15
 2968 009c D6D9     	 bls .L57
 310:../lgg/scp/scp.c **** 		}
 311:../lgg/scp/scp.c **** 	}
 312:../lgg/scp/scp.c **** }
 2969              	 .loc 1 312 0 is_stmt 1
 2970 009e 1437     	 adds r7,r7,#20
 2971              	.LCFI51:
 2972              	 .cfi_def_cfa_offset 12
 2973 00a0 BD46     	 mov sp,r7
 2974              	.LCFI52:
 2975              	 .cfi_def_cfa_register 13
 2976              	 
 2977 00a2 90BD     	 pop {r4,r7,pc}
 2978              	.L59:
 2979              	 .align 2
 2980              	.L58:
 2981 00a4 00000000 	 .word chinese
 2982              	 .cfi_endproc
 2983              	.LFE329:
 2985              	 .section .text.LGG_SCP_draw_point,"ax",%progbits
 2986              	 .align 2
 2987              	 .global LGG_SCP_draw_point
 2988              	 .thumb
 2989              	 .thumb_func
 2991              	LGG_SCP_draw_point:
 2992              	.LFB330:
 313:../lgg/scp/scp.c **** 
 314:../lgg/scp/scp.c **** /*
 315:../lgg/scp/scp.c ****  *  @ Brief:  draw a point on screen
 316:../lgg/scp/scp.c ****  *  @ param:  (pos_x, pos_y), color
 317:../lgg/scp/scp.c ****  */
 318:../lgg/scp/scp.c **** void LGG_SCP_draw_point(uint16_t X, uint16_t Y, uint16_t color)
 319:../lgg/scp/scp.c **** {
 2993              	 .loc 1 319 0
 2994              	 .cfi_startproc
 2995              	 
 2996              	 
 2997 0000 80B5     	 push {r7,lr}
 2998              	.LCFI53:
 2999              	 .cfi_def_cfa_offset 8
 3000              	 .cfi_offset 7,-8
 3001              	 .cfi_offset 14,-4
 3002 0002 82B0     	 sub sp,sp,#8
 3003              	.LCFI54:
 3004              	 .cfi_def_cfa_offset 16
 3005 0004 00AF     	 add r7,sp,#0
 3006              	.LCFI55:
 3007              	 .cfi_def_cfa_register 7
 3008 0006 0346     	 mov r3,r0
 3009 0008 FB80     	 strh r3,[r7,#6]
 3010 000a 0B46     	 mov r3,r1
 3011 000c BB80     	 strh r3,[r7,#4]
 3012 000e 1346     	 mov r3,r2
 3013 0010 7B80     	 strh r3,[r7,#2]
 320:../lgg/scp/scp.c **** 	LGG_SCP_address_set(X, Y, X, Y);
 3014              	 .loc 1 320 0
 3015 0012 FB88     	 ldrh r3,[r7,#6]
 3016 0014 D8B2     	 uxtb r0,r3
 3017 0016 BB88     	 ldrh r3,[r7,#4]
 3018 0018 D9B2     	 uxtb r1,r3
 3019 001a FB88     	 ldrh r3,[r7,#6]
 3020 001c DAB2     	 uxtb r2,r3
 3021 001e BB88     	 ldrh r3,[r7,#4]
 3022 0020 DBB2     	 uxtb r3,r3
 3023 0022 FFF7FEFF 	 bl LGG_SCP_address_set
 321:../lgg/scp/scp.c **** 	LGG_SCP_transmit_data16(color);
 3024              	 .loc 1 321 0
 3025 0026 7B88     	 ldrh r3,[r7,#2]
 3026 0028 1846     	 mov r0,r3
 3027 002a FFF7FEFF 	 bl LGG_SCP_transmit_data16
 322:../lgg/scp/scp.c **** }
 3028              	 .loc 1 322 0
 3029 002e 0837     	 adds r7,r7,#8
 3030              	.LCFI56:
 3031              	 .cfi_def_cfa_offset 8
 3032 0030 BD46     	 mov sp,r7
 3033              	.LCFI57:
 3034              	 .cfi_def_cfa_register 13
 3035              	 
 3036 0032 80BD     	 pop {r7,pc}
 3037              	 .cfi_endproc
 3038              	.LFE330:
 3040              	 .section .text.lgg_scp_show_image,"ax",%progbits
 3041              	 .align 2
 3042              	 .global lgg_scp_show_image
 3043              	 .thumb
 3044              	 .thumb_func
 3046              	lgg_scp_show_image:
 3047              	.LFB331:
 323:../lgg/scp/scp.c **** 
 324:../lgg/scp/scp.c **** /*
 325:../lgg/scp/scp.c ****  *  @ Brief:  show a picture on screen
 326:../lgg/scp/scp.c ****  *  @ param:  pImage - pointer to image pixel table
 327:../lgg/scp/scp.c ****  */
 328:../lgg/scp/scp.c **** void lgg_scp_show_image(uint16_t* pImage)
 329:../lgg/scp/scp.c **** {
 3048              	 .loc 1 329 0
 3049              	 .cfi_startproc
 3050              	 
 3051              	 
 3052 0000 80B5     	 push {r7,lr}
 3053              	.LCFI58:
 3054              	 .cfi_def_cfa_offset 8
 3055              	 .cfi_offset 7,-8
 3056              	 .cfi_offset 14,-4
 3057 0002 84B0     	 sub sp,sp,#16
 3058              	.LCFI59:
 3059              	 .cfi_def_cfa_offset 24
 3060 0004 00AF     	 add r7,sp,#0
 3061              	.LCFI60:
 3062              	 .cfi_def_cfa_register 7
 3063 0006 7860     	 str r0,[r7,#4]
 330:../lgg/scp/scp.c **** 	uint16_t i = 0;
 3064              	 .loc 1 330 0
 3065 0008 0023     	 movs r3,#0
 3066 000a FB81     	 strh r3,[r7,#14]
 331:../lgg/scp/scp.c **** 	LGG_SCP_address_set(0, 0, LGG_SCP_PM_WIDTH - 1, LGG_SCP_PM_HEIGHT - 1);
 3067              	 .loc 1 331 0
 3068 000c 0020     	 movs r0,#0
 3069 000e 0021     	 movs r1,#0
 3070 0010 7F22     	 movs r2,#127
 3071 0012 9F23     	 movs r3,#159
 3072 0014 FFF7FEFF 	 bl LGG_SCP_address_set
 332:../lgg/scp/scp.c **** 	for(i=0; i<20480; i++)
 3073              	 .loc 1 332 0
 3074 0018 0023     	 movs r3,#0
 3075 001a FB81     	 strh r3,[r7,#14]
 3076 001c 0AE0     	 b .L62
 3077              	.L63:
 333:../lgg/scp/scp.c **** 	{
 334:../lgg/scp/scp.c **** 		LGG_SCP_transmit_data16(pImage[i]);
 3078              	 .loc 1 334 0 discriminator 3
 3079 001e FB89     	 ldrh r3,[r7,#14]
 3080 0020 5B00     	 lsls r3,r3,#1
 3081 0022 7A68     	 ldr r2,[r7,#4]
 3082 0024 1344     	 add r3,r3,r2
 3083 0026 1B88     	 ldrh r3,[r3]
 3084 0028 1846     	 mov r0,r3
 3085 002a FFF7FEFF 	 bl LGG_SCP_transmit_data16
 332:../lgg/scp/scp.c **** 	for(i=0; i<20480; i++)
 3086              	 .loc 1 332 0 discriminator 3
 3087 002e FB89     	 ldrh r3,[r7,#14]
 3088 0030 0133     	 adds r3,r3,#1
 3089 0032 FB81     	 strh r3,[r7,#14]
 3090              	.L62:
 332:../lgg/scp/scp.c **** 	for(i=0; i<20480; i++)
 3091              	 .loc 1 332 0 is_stmt 0 discriminator 1
 3092 0034 FB89     	 ldrh r3,[r7,#14]
 3093 0036 B3F5A04F 	 cmp r3,#20480
 3094 003a F0D3     	 bcc .L63
 335:../lgg/scp/scp.c **** 	}
 336:../lgg/scp/scp.c **** }
 3095              	 .loc 1 336 0 is_stmt 1
 3096 003c 1037     	 adds r7,r7,#16
 3097              	.LCFI61:
 3098              	 .cfi_def_cfa_offset 8
 3099 003e BD46     	 mov sp,r7
 3100              	.LCFI62:
 3101              	 .cfi_def_cfa_register 13
 3102              	 
 3103 0040 80BD     	 pop {r7,pc}
 3104              	 .cfi_endproc
 3105              	.LFE331:
 3107 0042 00BF     	 .text
 3108              	.Letext0:
 3109              	 .file 2 "c:\\dave-ide-4.4.2-64bit\\eclipse\\arm-gcc-49\\arm-none-eabi\\include\\machine\\_default_types.h"
 3110              	 .file 3 "c:\\dave-ide-4.4.2-64bit\\eclipse\\arm-gcc-49\\arm-none-eabi\\include\\stdint.h"
 3111              	 .file 4 "C:/Users/lgg/Desktop/hithanbo/dave_ws/lgg_xmc/Libraries/CMSIS/Infineon/XMC4500_series/Include/XMC4500.h"
 3112              	 .file 5 "C:/Users/lgg/Desktop/hithanbo/dave_ws/lgg_xmc/Libraries/XMCLib/inc/xmc_usic.h"
 3113              	 .file 6 "C:/Users/lgg/Desktop/hithanbo/dave_ws/lgg_xmc/Libraries/CMSIS/Include/cmsis_gcc.h"
 3114              	 .file 7 "C:/Users/lgg/Desktop/hithanbo/dave_ws/lgg_xmc/Libraries/CMSIS/Include/core_cm4.h"
 3115              	 .file 8 "C:/Users/lgg/Desktop/hithanbo/dave_ws/lgg_xmc/Libraries/CMSIS/Infineon/XMC4500_series/Include/system_XMC4500.h"
 3116              	 .file 9 "../lgg/scp/scp_font.h"
DEFINED SYMBOLS
                            *ABS*:00000000 scp.c
    {standard input}:24     .rodata.ascii_1608:00000000 ascii_1608
    {standard input}:21     .rodata.ascii_1608:00000000 $d
    {standard input}:1550   .rodata.chinese:00000000 chinese
    {standard input}:1547   .rodata.chinese:00000000 $d
    {standard input}:1776   .text.LGG_SCP_transmit_byte:00000000 $t
    {standard input}:1781   .text.LGG_SCP_transmit_byte:00000000 LGG_SCP_transmit_byte
    {standard input}:1847   .text.LGG_SCP_transmit_byte:0000004c $d
    {standard input}:1853   .text.LGG_SCP_transmit_cmd:00000000 $t
    {standard input}:1858   .text.LGG_SCP_transmit_cmd:00000000 LGG_SCP_transmit_cmd
    {standard input}:1899   .text.LGG_SCP_transmit_cmd:00000024 $d
    {standard input}:1904   .text.LGG_SCP_transmit_data8:00000000 $t
    {standard input}:1909   .text.LGG_SCP_transmit_data8:00000000 LGG_SCP_transmit_data8
    {standard input}:1950   .text.LGG_SCP_transmit_data8:00000024 $d
    {standard input}:1955   .text.LGG_SCP_transmit_data16:00000000 $t
    {standard input}:1960   .text.LGG_SCP_transmit_data16:00000000 LGG_SCP_transmit_data16
    {standard input}:2009   .text.LGG_SCP_transmit_data16:00000034 $d
    {standard input}:2014   .text.LGG_SCP_address_set:00000000 $t
    {standard input}:2019   .text.LGG_SCP_address_set:00000000 LGG_SCP_address_set
    {standard input}:2107   .text.LGG_SCP_init:00000000 $t
    {standard input}:2112   .text.LGG_SCP_init:00000000 LGG_SCP_init
    {standard input}:2361   .text.LGG_SCP_init:00000214 $d
    {standard input}:2366   .text.LGG_SCP_clear:00000000 $t
    {standard input}:2371   .text.LGG_SCP_clear:00000000 LGG_SCP_clear
    {standard input}:2441   .text.LGG_SCP_fill_region:00000000 $t
    {standard input}:2446   .text.LGG_SCP_fill_region:00000000 LGG_SCP_fill_region
    {standard input}:2535   .text.LGG_SCP_display_char:00000000 $t
    {standard input}:2540   .text.LGG_SCP_display_char:00000000 LGG_SCP_display_char
    {standard input}:2991   .text.LGG_SCP_draw_point:00000000 LGG_SCP_draw_point
    {standard input}:2741   .text.LGG_SCP_display_char:00000118 $d
    {standard input}:2746   .text.LGG_SCP_display_string:00000000 $t
    {standard input}:2751   .text.LGG_SCP_display_string:00000000 LGG_SCP_display_string
    {standard input}:2854   .text.LGG_SCP_display_chinese:00000000 $t
    {standard input}:2859   .text.LGG_SCP_display_chinese:00000000 LGG_SCP_display_chinese
    {standard input}:2981   .text.LGG_SCP_display_chinese:000000a4 $d
    {standard input}:2986   .text.LGG_SCP_draw_point:00000000 $t
    {standard input}:3041   .text.lgg_scp_show_image:00000000 $t
    {standard input}:3046   .text.lgg_scp_show_image:00000000 lgg_scp_show_image
                     .debug_frame:00000010 $d

UNDEFINED SYMBOLS
lgg_bsp_scp_init
lgg_delay
